
;CodeVisionAVR C Compiler V3.12 Advanced
;(C) Copyright 1998-2014 Pavel Haiduc, HP InfoTech s.r.l.
;http://www.hpinfotech.com

;Build configuration    : Debug
;Chip type              : ATmega16
;Program type           : Application
;Clock frequency        : 8.000000 MHz
;Memory model           : Small
;Optimize for           : Size
;(s)printf features     : int, width
;(s)scanf features      : int, width
;External RAM size      : 0
;Data Stack size        : 256 byte(s)
;Heap size              : 0 byte(s)
;Promote 'char' to 'int': Yes
;'char' is unsigned     : Yes
;8 bit enums            : Yes
;Global 'const' stored in FLASH: Yes
;Enhanced function parameter passing: Yes
;Enhanced core instructions: On
;Automatic register allocation for global variables: On
;Smart register allocation: On

	#define _MODEL_SMALL_

	#pragma AVRPART ADMIN PART_NAME ATmega16
	#pragma AVRPART MEMORY PROG_FLASH 16384
	#pragma AVRPART MEMORY EEPROM 512
	#pragma AVRPART MEMORY INT_SRAM SIZE 1024
	#pragma AVRPART MEMORY INT_SRAM START_ADDR 0x60

	#define CALL_SUPPORTED 1

	.LISTMAC
	.EQU UDRE=0x5
	.EQU RXC=0x7
	.EQU USR=0xB
	.EQU UDR=0xC
	.EQU SPSR=0xE
	.EQU SPDR=0xF
	.EQU EERE=0x0
	.EQU EEWE=0x1
	.EQU EEMWE=0x2
	.EQU EECR=0x1C
	.EQU EEDR=0x1D
	.EQU EEARL=0x1E
	.EQU EEARH=0x1F
	.EQU WDTCR=0x21
	.EQU MCUCR=0x35
	.EQU GICR=0x3B
	.EQU SPL=0x3D
	.EQU SPH=0x3E
	.EQU SREG=0x3F

	.DEF R0X0=R0
	.DEF R0X1=R1
	.DEF R0X2=R2
	.DEF R0X3=R3
	.DEF R0X4=R4
	.DEF R0X5=R5
	.DEF R0X6=R6
	.DEF R0X7=R7
	.DEF R0X8=R8
	.DEF R0X9=R9
	.DEF R0XA=R10
	.DEF R0XB=R11
	.DEF R0XC=R12
	.DEF R0XD=R13
	.DEF R0XE=R14
	.DEF R0XF=R15
	.DEF R0X10=R16
	.DEF R0X11=R17
	.DEF R0X12=R18
	.DEF R0X13=R19
	.DEF R0X14=R20
	.DEF R0X15=R21
	.DEF R0X16=R22
	.DEF R0X17=R23
	.DEF R0X18=R24
	.DEF R0X19=R25
	.DEF R0X1A=R26
	.DEF R0X1B=R27
	.DEF R0X1C=R28
	.DEF R0X1D=R29
	.DEF R0X1E=R30
	.DEF R0X1F=R31

	.EQU __SRAM_START=0x0060
	.EQU __SRAM_END=0x045F
	.EQU __DSTACK_SIZE=0x0100
	.EQU __HEAP_SIZE=0x0000
	.EQU __CLEAR_SRAM_SIZE=__SRAM_END-__SRAM_START+1

	.MACRO __CPD1N
	CPI  R30,LOW(@0)
	LDI  R26,HIGH(@0)
	CPC  R31,R26
	LDI  R26,BYTE3(@0)
	CPC  R22,R26
	LDI  R26,BYTE4(@0)
	CPC  R23,R26
	.ENDM

	.MACRO __CPD2N
	CPI  R26,LOW(@0)
	LDI  R30,HIGH(@0)
	CPC  R27,R30
	LDI  R30,BYTE3(@0)
	CPC  R24,R30
	LDI  R30,BYTE4(@0)
	CPC  R25,R30
	.ENDM

	.MACRO __CPWRR
	CP   R@0,R@2
	CPC  R@1,R@3
	.ENDM

	.MACRO __CPWRN
	CPI  R@0,LOW(@2)
	LDI  R30,HIGH(@2)
	CPC  R@1,R30
	.ENDM

	.MACRO __ADDB1MN
	SUBI R30,LOW(-@0-(@1))
	.ENDM

	.MACRO __ADDB2MN
	SUBI R26,LOW(-@0-(@1))
	.ENDM

	.MACRO __ADDW1MN
	SUBI R30,LOW(-@0-(@1))
	SBCI R31,HIGH(-@0-(@1))
	.ENDM

	.MACRO __ADDW2MN
	SUBI R26,LOW(-@0-(@1))
	SBCI R27,HIGH(-@0-(@1))
	.ENDM

	.MACRO __ADDW1FN
	SUBI R30,LOW(-2*@0-(@1))
	SBCI R31,HIGH(-2*@0-(@1))
	.ENDM

	.MACRO __ADDD1FN
	SUBI R30,LOW(-2*@0-(@1))
	SBCI R31,HIGH(-2*@0-(@1))
	SBCI R22,BYTE3(-2*@0-(@1))
	.ENDM

	.MACRO __ADDD1N
	SUBI R30,LOW(-@0)
	SBCI R31,HIGH(-@0)
	SBCI R22,BYTE3(-@0)
	SBCI R23,BYTE4(-@0)
	.ENDM

	.MACRO __ADDD2N
	SUBI R26,LOW(-@0)
	SBCI R27,HIGH(-@0)
	SBCI R24,BYTE3(-@0)
	SBCI R25,BYTE4(-@0)
	.ENDM

	.MACRO __SUBD1N
	SUBI R30,LOW(@0)
	SBCI R31,HIGH(@0)
	SBCI R22,BYTE3(@0)
	SBCI R23,BYTE4(@0)
	.ENDM

	.MACRO __SUBD2N
	SUBI R26,LOW(@0)
	SBCI R27,HIGH(@0)
	SBCI R24,BYTE3(@0)
	SBCI R25,BYTE4(@0)
	.ENDM

	.MACRO __ANDBMNN
	LDS  R30,@0+(@1)
	ANDI R30,LOW(@2)
	STS  @0+(@1),R30
	.ENDM

	.MACRO __ANDWMNN
	LDS  R30,@0+(@1)
	ANDI R30,LOW(@2)
	STS  @0+(@1),R30
	LDS  R30,@0+(@1)+1
	ANDI R30,HIGH(@2)
	STS  @0+(@1)+1,R30
	.ENDM

	.MACRO __ANDD1N
	ANDI R30,LOW(@0)
	ANDI R31,HIGH(@0)
	ANDI R22,BYTE3(@0)
	ANDI R23,BYTE4(@0)
	.ENDM

	.MACRO __ANDD2N
	ANDI R26,LOW(@0)
	ANDI R27,HIGH(@0)
	ANDI R24,BYTE3(@0)
	ANDI R25,BYTE4(@0)
	.ENDM

	.MACRO __ORBMNN
	LDS  R30,@0+(@1)
	ORI  R30,LOW(@2)
	STS  @0+(@1),R30
	.ENDM

	.MACRO __ORWMNN
	LDS  R30,@0+(@1)
	ORI  R30,LOW(@2)
	STS  @0+(@1),R30
	LDS  R30,@0+(@1)+1
	ORI  R30,HIGH(@2)
	STS  @0+(@1)+1,R30
	.ENDM

	.MACRO __ORD1N
	ORI  R30,LOW(@0)
	ORI  R31,HIGH(@0)
	ORI  R22,BYTE3(@0)
	ORI  R23,BYTE4(@0)
	.ENDM

	.MACRO __ORD2N
	ORI  R26,LOW(@0)
	ORI  R27,HIGH(@0)
	ORI  R24,BYTE3(@0)
	ORI  R25,BYTE4(@0)
	.ENDM

	.MACRO __DELAY_USB
	LDI  R24,LOW(@0)
__DELAY_USB_LOOP:
	DEC  R24
	BRNE __DELAY_USB_LOOP
	.ENDM

	.MACRO __DELAY_USW
	LDI  R24,LOW(@0)
	LDI  R25,HIGH(@0)
__DELAY_USW_LOOP:
	SBIW R24,1
	BRNE __DELAY_USW_LOOP
	.ENDM

	.MACRO __GETD1S
	LDD  R30,Y+@0
	LDD  R31,Y+@0+1
	LDD  R22,Y+@0+2
	LDD  R23,Y+@0+3
	.ENDM

	.MACRO __GETD2S
	LDD  R26,Y+@0
	LDD  R27,Y+@0+1
	LDD  R24,Y+@0+2
	LDD  R25,Y+@0+3
	.ENDM

	.MACRO __PUTD1S
	STD  Y+@0,R30
	STD  Y+@0+1,R31
	STD  Y+@0+2,R22
	STD  Y+@0+3,R23
	.ENDM

	.MACRO __PUTD2S
	STD  Y+@0,R26
	STD  Y+@0+1,R27
	STD  Y+@0+2,R24
	STD  Y+@0+3,R25
	.ENDM

	.MACRO __PUTDZ2
	STD  Z+@0,R26
	STD  Z+@0+1,R27
	STD  Z+@0+2,R24
	STD  Z+@0+3,R25
	.ENDM

	.MACRO __CLRD1S
	STD  Y+@0,R30
	STD  Y+@0+1,R30
	STD  Y+@0+2,R30
	STD  Y+@0+3,R30
	.ENDM

	.MACRO __POINTB1MN
	LDI  R30,LOW(@0+(@1))
	.ENDM

	.MACRO __POINTW1MN
	LDI  R30,LOW(@0+(@1))
	LDI  R31,HIGH(@0+(@1))
	.ENDM

	.MACRO __POINTD1M
	LDI  R30,LOW(@0)
	LDI  R31,HIGH(@0)
	LDI  R22,BYTE3(@0)
	LDI  R23,BYTE4(@0)
	.ENDM

	.MACRO __POINTW1FN
	LDI  R30,LOW(2*@0+(@1))
	LDI  R31,HIGH(2*@0+(@1))
	.ENDM

	.MACRO __POINTD1FN
	LDI  R30,LOW(2*@0+(@1))
	LDI  R31,HIGH(2*@0+(@1))
	LDI  R22,BYTE3(2*@0+(@1))
	LDI  R23,BYTE4(2*@0+(@1))
	.ENDM

	.MACRO __POINTB2MN
	LDI  R26,LOW(@0+(@1))
	.ENDM

	.MACRO __POINTW2MN
	LDI  R26,LOW(@0+(@1))
	LDI  R27,HIGH(@0+(@1))
	.ENDM

	.MACRO __POINTW2FN
	LDI  R26,LOW(2*@0+(@1))
	LDI  R27,HIGH(2*@0+(@1))
	.ENDM

	.MACRO __POINTD2FN
	LDI  R26,LOW(2*@0+(@1))
	LDI  R27,HIGH(2*@0+(@1))
	LDI  R24,BYTE3(2*@0+(@1))
	LDI  R25,BYTE4(2*@0+(@1))
	.ENDM

	.MACRO __POINTBRM
	LDI  R@0,LOW(@1)
	.ENDM

	.MACRO __POINTWRM
	LDI  R@0,LOW(@2)
	LDI  R@1,HIGH(@2)
	.ENDM

	.MACRO __POINTBRMN
	LDI  R@0,LOW(@1+(@2))
	.ENDM

	.MACRO __POINTWRMN
	LDI  R@0,LOW(@2+(@3))
	LDI  R@1,HIGH(@2+(@3))
	.ENDM

	.MACRO __POINTWRFN
	LDI  R@0,LOW(@2*2+(@3))
	LDI  R@1,HIGH(@2*2+(@3))
	.ENDM

	.MACRO __GETD1N
	LDI  R30,LOW(@0)
	LDI  R31,HIGH(@0)
	LDI  R22,BYTE3(@0)
	LDI  R23,BYTE4(@0)
	.ENDM

	.MACRO __GETD2N
	LDI  R26,LOW(@0)
	LDI  R27,HIGH(@0)
	LDI  R24,BYTE3(@0)
	LDI  R25,BYTE4(@0)
	.ENDM

	.MACRO __GETB1MN
	LDS  R30,@0+(@1)
	.ENDM

	.MACRO __GETB1HMN
	LDS  R31,@0+(@1)
	.ENDM

	.MACRO __GETW1MN
	LDS  R30,@0+(@1)
	LDS  R31,@0+(@1)+1
	.ENDM

	.MACRO __GETD1MN
	LDS  R30,@0+(@1)
	LDS  R31,@0+(@1)+1
	LDS  R22,@0+(@1)+2
	LDS  R23,@0+(@1)+3
	.ENDM

	.MACRO __GETBRMN
	LDS  R@0,@1+(@2)
	.ENDM

	.MACRO __GETWRMN
	LDS  R@0,@2+(@3)
	LDS  R@1,@2+(@3)+1
	.ENDM

	.MACRO __GETWRZ
	LDD  R@0,Z+@2
	LDD  R@1,Z+@2+1
	.ENDM

	.MACRO __GETD2Z
	LDD  R26,Z+@0
	LDD  R27,Z+@0+1
	LDD  R24,Z+@0+2
	LDD  R25,Z+@0+3
	.ENDM

	.MACRO __GETB2MN
	LDS  R26,@0+(@1)
	.ENDM

	.MACRO __GETW2MN
	LDS  R26,@0+(@1)
	LDS  R27,@0+(@1)+1
	.ENDM

	.MACRO __GETD2MN
	LDS  R26,@0+(@1)
	LDS  R27,@0+(@1)+1
	LDS  R24,@0+(@1)+2
	LDS  R25,@0+(@1)+3
	.ENDM

	.MACRO __PUTB1MN
	STS  @0+(@1),R30
	.ENDM

	.MACRO __PUTW1MN
	STS  @0+(@1),R30
	STS  @0+(@1)+1,R31
	.ENDM

	.MACRO __PUTD1MN
	STS  @0+(@1),R30
	STS  @0+(@1)+1,R31
	STS  @0+(@1)+2,R22
	STS  @0+(@1)+3,R23
	.ENDM

	.MACRO __PUTB1EN
	LDI  R26,LOW(@0+(@1))
	LDI  R27,HIGH(@0+(@1))
	CALL __EEPROMWRB
	.ENDM

	.MACRO __PUTW1EN
	LDI  R26,LOW(@0+(@1))
	LDI  R27,HIGH(@0+(@1))
	CALL __EEPROMWRW
	.ENDM

	.MACRO __PUTD1EN
	LDI  R26,LOW(@0+(@1))
	LDI  R27,HIGH(@0+(@1))
	CALL __EEPROMWRD
	.ENDM

	.MACRO __PUTBR0MN
	STS  @0+(@1),R0
	.ENDM

	.MACRO __PUTBMRN
	STS  @0+(@1),R@2
	.ENDM

	.MACRO __PUTWMRN
	STS  @0+(@1),R@2
	STS  @0+(@1)+1,R@3
	.ENDM

	.MACRO __PUTBZR
	STD  Z+@1,R@0
	.ENDM

	.MACRO __PUTWZR
	STD  Z+@2,R@0
	STD  Z+@2+1,R@1
	.ENDM

	.MACRO __GETW1R
	MOV  R30,R@0
	MOV  R31,R@1
	.ENDM

	.MACRO __GETW2R
	MOV  R26,R@0
	MOV  R27,R@1
	.ENDM

	.MACRO __GETWRN
	LDI  R@0,LOW(@2)
	LDI  R@1,HIGH(@2)
	.ENDM

	.MACRO __PUTW1R
	MOV  R@0,R30
	MOV  R@1,R31
	.ENDM

	.MACRO __PUTW2R
	MOV  R@0,R26
	MOV  R@1,R27
	.ENDM

	.MACRO __ADDWRN
	SUBI R@0,LOW(-@2)
	SBCI R@1,HIGH(-@2)
	.ENDM

	.MACRO __ADDWRR
	ADD  R@0,R@2
	ADC  R@1,R@3
	.ENDM

	.MACRO __SUBWRN
	SUBI R@0,LOW(@2)
	SBCI R@1,HIGH(@2)
	.ENDM

	.MACRO __SUBWRR
	SUB  R@0,R@2
	SBC  R@1,R@3
	.ENDM

	.MACRO __ANDWRN
	ANDI R@0,LOW(@2)
	ANDI R@1,HIGH(@2)
	.ENDM

	.MACRO __ANDWRR
	AND  R@0,R@2
	AND  R@1,R@3
	.ENDM

	.MACRO __ORWRN
	ORI  R@0,LOW(@2)
	ORI  R@1,HIGH(@2)
	.ENDM

	.MACRO __ORWRR
	OR   R@0,R@2
	OR   R@1,R@3
	.ENDM

	.MACRO __EORWRR
	EOR  R@0,R@2
	EOR  R@1,R@3
	.ENDM

	.MACRO __GETWRS
	LDD  R@0,Y+@2
	LDD  R@1,Y+@2+1
	.ENDM

	.MACRO __PUTBSR
	STD  Y+@1,R@0
	.ENDM

	.MACRO __PUTWSR
	STD  Y+@2,R@0
	STD  Y+@2+1,R@1
	.ENDM

	.MACRO __MOVEWRR
	MOV  R@0,R@2
	MOV  R@1,R@3
	.ENDM

	.MACRO __INWR
	IN   R@0,@2
	IN   R@1,@2+1
	.ENDM

	.MACRO __OUTWR
	OUT  @2+1,R@1
	OUT  @2,R@0
	.ENDM

	.MACRO __CALL1MN
	LDS  R30,@0+(@1)
	LDS  R31,@0+(@1)+1
	ICALL
	.ENDM

	.MACRO __CALL1FN
	LDI  R30,LOW(2*@0+(@1))
	LDI  R31,HIGH(2*@0+(@1))
	CALL __GETW1PF
	ICALL
	.ENDM

	.MACRO __CALL2EN
	PUSH R26
	PUSH R27
	LDI  R26,LOW(@0+(@1))
	LDI  R27,HIGH(@0+(@1))
	CALL __EEPROMRDW
	POP  R27
	POP  R26
	ICALL
	.ENDM

	.MACRO __CALL2EX
	SUBI R26,LOW(-@0)
	SBCI R27,HIGH(-@0)
	CALL __EEPROMRDD
	ICALL
	.ENDM

	.MACRO __GETW1STACK
	IN   R30,SPL
	IN   R31,SPH
	ADIW R30,@0+1
	LD   R0,Z+
	LD   R31,Z
	MOV  R30,R0
	.ENDM

	.MACRO __GETD1STACK
	IN   R30,SPL
	IN   R31,SPH
	ADIW R30,@0+1
	LD   R0,Z+
	LD   R1,Z+
	LD   R22,Z
	MOVW R30,R0
	.ENDM

	.MACRO __NBST
	BST  R@0,@1
	IN   R30,SREG
	LDI  R31,0x40
	EOR  R30,R31
	OUT  SREG,R30
	.ENDM


	.MACRO __PUTB1SN
	LDD  R26,Y+@0
	LDD  R27,Y+@0+1
	SUBI R26,LOW(-@1)
	SBCI R27,HIGH(-@1)
	ST   X,R30
	.ENDM

	.MACRO __PUTW1SN
	LDD  R26,Y+@0
	LDD  R27,Y+@0+1
	SUBI R26,LOW(-@1)
	SBCI R27,HIGH(-@1)
	ST   X+,R30
	ST   X,R31
	.ENDM

	.MACRO __PUTD1SN
	LDD  R26,Y+@0
	LDD  R27,Y+@0+1
	SUBI R26,LOW(-@1)
	SBCI R27,HIGH(-@1)
	CALL __PUTDP1
	.ENDM

	.MACRO __PUTB1SNS
	LDD  R26,Y+@0
	LDD  R27,Y+@0+1
	ADIW R26,@1
	ST   X,R30
	.ENDM

	.MACRO __PUTW1SNS
	LDD  R26,Y+@0
	LDD  R27,Y+@0+1
	ADIW R26,@1
	ST   X+,R30
	ST   X,R31
	.ENDM

	.MACRO __PUTD1SNS
	LDD  R26,Y+@0
	LDD  R27,Y+@0+1
	ADIW R26,@1
	CALL __PUTDP1
	.ENDM

	.MACRO __PUTB1PMN
	LDS  R26,@0
	LDS  R27,@0+1
	SUBI R26,LOW(-@1)
	SBCI R27,HIGH(-@1)
	ST   X,R30
	.ENDM

	.MACRO __PUTW1PMN
	LDS  R26,@0
	LDS  R27,@0+1
	SUBI R26,LOW(-@1)
	SBCI R27,HIGH(-@1)
	ST   X+,R30
	ST   X,R31
	.ENDM

	.MACRO __PUTD1PMN
	LDS  R26,@0
	LDS  R27,@0+1
	SUBI R26,LOW(-@1)
	SBCI R27,HIGH(-@1)
	CALL __PUTDP1
	.ENDM

	.MACRO __PUTB1PMNS
	LDS  R26,@0
	LDS  R27,@0+1
	ADIW R26,@1
	ST   X,R30
	.ENDM

	.MACRO __PUTW1PMNS
	LDS  R26,@0
	LDS  R27,@0+1
	ADIW R26,@1
	ST   X+,R30
	ST   X,R31
	.ENDM

	.MACRO __PUTD1PMNS
	LDS  R26,@0
	LDS  R27,@0+1
	ADIW R26,@1
	CALL __PUTDP1
	.ENDM

	.MACRO __PUTB1RN
	MOVW R26,R@0
	SUBI R26,LOW(-@1)
	SBCI R27,HIGH(-@1)
	ST   X,R30
	.ENDM

	.MACRO __PUTW1RN
	MOVW R26,R@0
	SUBI R26,LOW(-@1)
	SBCI R27,HIGH(-@1)
	ST   X+,R30
	ST   X,R31
	.ENDM

	.MACRO __PUTD1RN
	MOVW R26,R@0
	SUBI R26,LOW(-@1)
	SBCI R27,HIGH(-@1)
	CALL __PUTDP1
	.ENDM

	.MACRO __PUTB1RNS
	MOVW R26,R@0
	ADIW R26,@1
	ST   X,R30
	.ENDM

	.MACRO __PUTW1RNS
	MOVW R26,R@0
	ADIW R26,@1
	ST   X+,R30
	ST   X,R31
	.ENDM

	.MACRO __PUTD1RNS
	MOVW R26,R@0
	ADIW R26,@1
	CALL __PUTDP1
	.ENDM

	.MACRO __PUTB1RON
	MOV  R26,R@0
	MOV  R27,R@1
	SUBI R26,LOW(-@2)
	SBCI R27,HIGH(-@2)
	ST   X,R30
	.ENDM

	.MACRO __PUTW1RON
	MOV  R26,R@0
	MOV  R27,R@1
	SUBI R26,LOW(-@2)
	SBCI R27,HIGH(-@2)
	ST   X+,R30
	ST   X,R31
	.ENDM

	.MACRO __PUTD1RON
	MOV  R26,R@0
	MOV  R27,R@1
	SUBI R26,LOW(-@2)
	SBCI R27,HIGH(-@2)
	CALL __PUTDP1
	.ENDM

	.MACRO __PUTB1RONS
	MOV  R26,R@0
	MOV  R27,R@1
	ADIW R26,@2
	ST   X,R30
	.ENDM

	.MACRO __PUTW1RONS
	MOV  R26,R@0
	MOV  R27,R@1
	ADIW R26,@2
	ST   X+,R30
	ST   X,R31
	.ENDM

	.MACRO __PUTD1RONS
	MOV  R26,R@0
	MOV  R27,R@1
	ADIW R26,@2
	CALL __PUTDP1
	.ENDM


	.MACRO __GETB1SX
	MOVW R30,R28
	SUBI R30,LOW(-@0)
	SBCI R31,HIGH(-@0)
	LD   R30,Z
	.ENDM

	.MACRO __GETB1HSX
	MOVW R30,R28
	SUBI R30,LOW(-@0)
	SBCI R31,HIGH(-@0)
	LD   R31,Z
	.ENDM

	.MACRO __GETW1SX
	MOVW R30,R28
	SUBI R30,LOW(-@0)
	SBCI R31,HIGH(-@0)
	LD   R0,Z+
	LD   R31,Z
	MOV  R30,R0
	.ENDM

	.MACRO __GETD1SX
	MOVW R30,R28
	SUBI R30,LOW(-@0)
	SBCI R31,HIGH(-@0)
	LD   R0,Z+
	LD   R1,Z+
	LD   R22,Z+
	LD   R23,Z
	MOVW R30,R0
	.ENDM

	.MACRO __GETB2SX
	MOVW R26,R28
	SUBI R26,LOW(-@0)
	SBCI R27,HIGH(-@0)
	LD   R26,X
	.ENDM

	.MACRO __GETW2SX
	MOVW R26,R28
	SUBI R26,LOW(-@0)
	SBCI R27,HIGH(-@0)
	LD   R0,X+
	LD   R27,X
	MOV  R26,R0
	.ENDM

	.MACRO __GETD2SX
	MOVW R26,R28
	SUBI R26,LOW(-@0)
	SBCI R27,HIGH(-@0)
	LD   R0,X+
	LD   R1,X+
	LD   R24,X+
	LD   R25,X
	MOVW R26,R0
	.ENDM

	.MACRO __GETBRSX
	MOVW R30,R28
	SUBI R30,LOW(-@1)
	SBCI R31,HIGH(-@1)
	LD   R@0,Z
	.ENDM

	.MACRO __GETWRSX
	MOVW R30,R28
	SUBI R30,LOW(-@2)
	SBCI R31,HIGH(-@2)
	LD   R@0,Z+
	LD   R@1,Z
	.ENDM

	.MACRO __GETBRSX2
	MOVW R26,R28
	SUBI R26,LOW(-@1)
	SBCI R27,HIGH(-@1)
	LD   R@0,X
	.ENDM

	.MACRO __GETWRSX2
	MOVW R26,R28
	SUBI R26,LOW(-@2)
	SBCI R27,HIGH(-@2)
	LD   R@0,X+
	LD   R@1,X
	.ENDM

	.MACRO __LSLW8SX
	MOVW R30,R28
	SUBI R30,LOW(-@0)
	SBCI R31,HIGH(-@0)
	LD   R31,Z
	CLR  R30
	.ENDM

	.MACRO __PUTB1SX
	MOVW R26,R28
	SUBI R26,LOW(-@0)
	SBCI R27,HIGH(-@0)
	ST   X,R30
	.ENDM

	.MACRO __PUTW1SX
	MOVW R26,R28
	SUBI R26,LOW(-@0)
	SBCI R27,HIGH(-@0)
	ST   X+,R30
	ST   X,R31
	.ENDM

	.MACRO __PUTD1SX
	MOVW R26,R28
	SUBI R26,LOW(-@0)
	SBCI R27,HIGH(-@0)
	ST   X+,R30
	ST   X+,R31
	ST   X+,R22
	ST   X,R23
	.ENDM

	.MACRO __CLRW1SX
	MOVW R26,R28
	SUBI R26,LOW(-@0)
	SBCI R27,HIGH(-@0)
	ST   X+,R30
	ST   X,R30
	.ENDM

	.MACRO __CLRD1SX
	MOVW R26,R28
	SUBI R26,LOW(-@0)
	SBCI R27,HIGH(-@0)
	ST   X+,R30
	ST   X+,R30
	ST   X+,R30
	ST   X,R30
	.ENDM

	.MACRO __PUTB2SX
	MOVW R30,R28
	SUBI R30,LOW(-@0)
	SBCI R31,HIGH(-@0)
	ST   Z,R26
	.ENDM

	.MACRO __PUTW2SX
	MOVW R30,R28
	SUBI R30,LOW(-@0)
	SBCI R31,HIGH(-@0)
	ST   Z+,R26
	ST   Z,R27
	.ENDM

	.MACRO __PUTD2SX
	MOVW R30,R28
	SUBI R30,LOW(-@0)
	SBCI R31,HIGH(-@0)
	ST   Z+,R26
	ST   Z+,R27
	ST   Z+,R24
	ST   Z,R25
	.ENDM

	.MACRO __PUTBSRX
	MOVW R30,R28
	SUBI R30,LOW(-@1)
	SBCI R31,HIGH(-@1)
	ST   Z,R@0
	.ENDM

	.MACRO __PUTWSRX
	MOVW R30,R28
	SUBI R30,LOW(-@2)
	SBCI R31,HIGH(-@2)
	ST   Z+,R@0
	ST   Z,R@1
	.ENDM

	.MACRO __PUTB1SNX
	MOVW R26,R28
	SUBI R26,LOW(-@0)
	SBCI R27,HIGH(-@0)
	LD   R0,X+
	LD   R27,X
	MOV  R26,R0
	SUBI R26,LOW(-@1)
	SBCI R27,HIGH(-@1)
	ST   X,R30
	.ENDM

	.MACRO __PUTW1SNX
	MOVW R26,R28
	SUBI R26,LOW(-@0)
	SBCI R27,HIGH(-@0)
	LD   R0,X+
	LD   R27,X
	MOV  R26,R0
	SUBI R26,LOW(-@1)
	SBCI R27,HIGH(-@1)
	ST   X+,R30
	ST   X,R31
	.ENDM

	.MACRO __PUTD1SNX
	MOVW R26,R28
	SUBI R26,LOW(-@0)
	SBCI R27,HIGH(-@0)
	LD   R0,X+
	LD   R27,X
	MOV  R26,R0
	SUBI R26,LOW(-@1)
	SBCI R27,HIGH(-@1)
	ST   X+,R30
	ST   X+,R31
	ST   X+,R22
	ST   X,R23
	.ENDM

	.MACRO __MULBRR
	MULS R@0,R@1
	MOVW R30,R0
	.ENDM

	.MACRO __MULBRRU
	MUL  R@0,R@1
	MOVW R30,R0
	.ENDM

	.MACRO __MULBRR0
	MULS R@0,R@1
	.ENDM

	.MACRO __MULBRRU0
	MUL  R@0,R@1
	.ENDM

	.MACRO __MULBNWRU
	LDI  R26,@2
	MUL  R26,R@0
	MOVW R30,R0
	MUL  R26,R@1
	ADD  R31,R0
	.ENDM

;NAME DEFINITIONS FOR GLOBAL VARIABLES ALLOCATED TO REGISTERS
	.DEF _houre=R5
	.DEF _minute=R4
	.DEF _second=R7
	.DEF _hundredth_of_a_second=R6
	.DEF _parking_empty_capacity=R9
	.DEF _period=R8
	.DEF _in_period=R10
	.DEF _in_period_msb=R11
	.DEF _temp=R12
	.DEF _temp_msb=R13

	.CSEG
	.ORG 0x00

;START OF CODE MARKER
__START_OF_CODE:

;INTERRUPT VECTORS
	JMP  __RESET
	JMP  _ext_int0_isr
	JMP  _ext_int1_isr
	JMP  0x00
	JMP  0x00
	JMP  0x00
	JMP  0x00
	JMP  0x00
	JMP  _timer1_ovf_isr
	JMP  _timer0_ovf_isr
	JMP  0x00
	JMP  0x00
	JMP  0x00
	JMP  0x00
	JMP  0x00
	JMP  0x00
	JMP  0x00
	JMP  0x00
	JMP  _ext_int2_isr
	JMP  0x00
	JMP  0x00

_tbl10_G100:
	.DB  0x10,0x27,0xE8,0x3,0x64,0x0,0xA,0x0
	.DB  0x1,0x0
_tbl16_G100:
	.DB  0x0,0x10,0x0,0x1,0x10,0x0,0x1,0x0

;GLOBAL REGISTER VARIABLES INITIALIZATION
__REG_VARS:
	.DB  0x0,0x0,0x0,0x0
	.DB  0xFF,0xA

_0x20000:
	.DB  0x43,0x45,0x3A,0x25,0x34,0x64,0x2A,0x2A
	.DB  0x0,0x25,0x32,0x64,0x3A,0x25,0x32,0x64
	.DB  0x3A,0x25,0x32,0x64,0x3A,0x25,0x32,0x64
	.DB  0x0,0x25,0x34,0x64,0x4D,0x53,0x30,0x0
_0x40004:
	.DB  LOW(_0x40003),HIGH(_0x40003)
_0x40006:
	.DB  LOW(_0x40005),HIGH(_0x40005)
_0x40008:
	.DB  LOW(_0x40007),HIGH(_0x40007)
_0x40000:
	.DB  0x30,0x30,0x3A,0x30,0x30,0x3A,0x30,0x30
	.DB  0x3A,0x30,0x30,0x0,0x43,0x45,0x3A,0x30
	.DB  0x30,0x30,0x30,0x2A,0x2A,0x0,0x30,0x30
	.DB  0x30,0x30,0x30,0x30,0x30,0x0,0x25,0x32
	.DB  0x64,0x3A,0x25,0x32,0x64,0x3A,0x25,0x32
	.DB  0x64,0x3A,0x25,0x32,0x64,0x0,0x43,0x45
	.DB  0x3A,0x46,0x55,0x4C,0x4C,0x2A,0x2A,0x0
	.DB  0x43,0x45,0x3A,0x25,0x34,0x64,0x2A,0x2A
	.DB  0x0,0x25,0x34,0x64,0x4D,0x53,0x30,0x0
	.DB  0x25,0x34,0x64,0x55,0x53,0x30,0x0
_0x2020003:
	.DB  0x80,0xC0

__GLOBAL_INI_TBL:
	.DW  0x06
	.DW  0x04
	.DW  __REG_VARS*2

	.DW  0x0C
	.DW  _0x40003
	.DW  _0x40000*2

	.DW  0x02
	.DW  _LCD_line1_template
	.DW  _0x40004*2

	.DW  0x0A
	.DW  _0x40005
	.DW  _0x40000*2+12

	.DW  0x02
	.DW  _LCD_line2_parking_template
	.DW  _0x40006*2

	.DW  0x08
	.DW  _0x40007
	.DW  _0x40000*2+22

	.DW  0x02
	.DW  _LCD_line2_period_template
	.DW  _0x40008*2

	.DW  0x02
	.DW  __base_y_G101
	.DW  _0x2020003*2

_0xFFFFFFFF:
	.DW  0

#define __GLOBAL_INI_TBL_PRESENT 1

__RESET:
	CLI
	CLR  R30
	OUT  EECR,R30

;INTERRUPT VECTORS ARE PLACED
;AT THE START OF FLASH
	LDI  R31,1
	OUT  GICR,R31
	OUT  GICR,R30
	OUT  MCUCR,R30

;CLEAR R2-R14
	LDI  R24,(14-2)+1
	LDI  R26,2
	CLR  R27
__CLEAR_REG:
	ST   X+,R30
	DEC  R24
	BRNE __CLEAR_REG

;CLEAR SRAM
	LDI  R24,LOW(__CLEAR_SRAM_SIZE)
	LDI  R25,HIGH(__CLEAR_SRAM_SIZE)
	LDI  R26,__SRAM_START
__CLEAR_SRAM:
	ST   X+,R30
	SBIW R24,1
	BRNE __CLEAR_SRAM

;GLOBAL VARIABLES INITIALIZATION
	LDI  R30,LOW(__GLOBAL_INI_TBL*2)
	LDI  R31,HIGH(__GLOBAL_INI_TBL*2)
__GLOBAL_INI_NEXT:
	LPM  R24,Z+
	LPM  R25,Z+
	SBIW R24,0
	BREQ __GLOBAL_INI_END
	LPM  R26,Z+
	LPM  R27,Z+
	LPM  R0,Z+
	LPM  R1,Z+
	MOVW R22,R30
	MOVW R30,R0
__GLOBAL_INI_LOOP:
	LPM  R0,Z+
	ST   X+,R0
	SBIW R24,1
	BRNE __GLOBAL_INI_LOOP
	MOVW R30,R22
	RJMP __GLOBAL_INI_NEXT
__GLOBAL_INI_END:

;HARDWARE STACK POINTER INITIALIZATION
	LDI  R30,LOW(__SRAM_END-__HEAP_SIZE)
	OUT  SPL,R30
	LDI  R30,HIGH(__SRAM_END-__HEAP_SIZE)
	OUT  SPH,R30

;DATA STACK POINTER INITIALIZATION
	LDI  R28,LOW(__SRAM_START+__DSTACK_SIZE)
	LDI  R29,HIGH(__SRAM_START+__DSTACK_SIZE)

	JMP  _main

	.ESEG
	.ORG 0

	.DSEG
	.ORG 0x160

	.CSEG
;/*******************************************************
;This program was created by the
;CodeWizardAVR V3.12 Advanced
;Automatic Program Generator
;Copyright 1998-2014 Pavel Haiduc, HP InfoTech s.r.l.
;http://www.hpinfotech.com
;
;Project : test 4, Introduction to LCD, interrupts and timers
;Version : 1.0
;Date    : 22/3/2021
;Author  : Maryam Saeedmehr
;Std. NO : 9629373
;
;
;Chip type               : ATmega16
;Program type            : Application
;AVR Core Clock frequency: 8.000000 MHz
;Memory model            : Small
;External RAM size       : 0
;Data Stack size         : 256
;*******************************************************/
;#include "test4_lib.h"
	#ifndef __SLEEP_DEFINED__
	#define __SLEEP_DEFINED__
	.EQU __se_bit=0x40
	.EQU __sm_mask=0xB0
	.EQU __sm_powerdown=0x20
	.EQU __sm_powersave=0x30
	.EQU __sm_standby=0xA0
	.EQU __sm_ext_standby=0xB0
	.EQU __sm_adc_noise_red=0x10
	.SET power_ctrl_reg=mcucr
	#endif
;
;void main(void){
; 0000 0018 void main(void){

	.CSEG
_main:
; .FSTART _main
; 0000 0019       // Global enable interrupts
; 0000 001A       #asm("sei")
	sei
; 0000 001B 
; 0000 001C       board_init();
	RCALL _board_init
; 0000 001D }
_0x3:
	RJMP _0x3
; .FEND
;#include "test4_lib.h"
	#ifndef __SLEEP_DEFINED__
	#define __SLEEP_DEFINED__
	.EQU __se_bit=0x40
	.EQU __sm_mask=0xB0
	.EQU __sm_powerdown=0x20
	.EQU __sm_powersave=0x30
	.EQU __sm_standby=0xA0
	.EQU __sm_ext_standby=0xB0
	.EQU __sm_adc_noise_red=0x10
	.SET power_ctrl_reg=mcucr
	#endif
;
;void io_init(){
; 0001 0003 void io_init(){

	.CSEG
_io_init:
; .FSTART _io_init
; 0001 0004     // Input/Output Ports initialization
; 0001 0005     // Port A initialization
; 0001 0006     // Function: Bit7=In Bit6=In Bit5=In Bit4=In Bit3=In Bit2=In Bit1=In Bit0=In
; 0001 0007     DDRA=(0<<DDA7) | (0<<DDA6) | (0<<DDA5) | (0<<DDA4) | (0<<DDA3) | (0<<DDA2) | (0<<DDA1) | (0<<DDA0);
	LDI  R30,LOW(0)
	OUT  0x1A,R30
; 0001 0008     // State: Bit7=T Bit6=T Bit5=T Bit4=T Bit3=T Bit2=T Bit1=T Bit0=T
; 0001 0009     PORTA=(0<<PORTA7) | (0<<PORTA6) | (0<<PORTA5) | (0<<PORTA4) | (0<<PORTA3) | (0<<PORTA2) | (0<<PORTA1) | (0<<PORTA0);
	OUT  0x1B,R30
; 0001 000A 
; 0001 000B     // Port B initialization
; 0001 000C     // Function: Bit7=In Bit6=In Bit5=In Bit4=In Bit3=In Bit2=In Bit1=In Bit0=In
; 0001 000D     DDRB=(0<<DDB7) | (0<<DDB6) | (0<<DDB5) | (0<<DDB4) | (0<<DDB3) | (0<<DDB2) | (0<<DDB1) | (0<<DDB0);
	OUT  0x17,R30
; 0001 000E     // State: Bit7=T Bit6=T Bit5=T Bit4=T Bit3=T Bit2=T Bit1=T Bit0=T
; 0001 000F     PORTB=(0<<PORTB7) | (0<<PORTB6) | (0<<PORTB5) | (0<<PORTB4) | (0<<PORTB3) | (0<<PORTB2) | (0<<PORTB1) | (0<<PORTB0);
	OUT  0x18,R30
; 0001 0010 
; 0001 0011     // Port C initialization
; 0001 0012     // Function: Bit7=Out Bit6=Out Bit5=Out Bit4=Out Bit3=Out Bit2=Out Bit1=Out Bit0=Out
; 0001 0013     DDRC=(1<<DDC7) | (1<<DDC6) | (1<<DDC5) | (1<<DDC4) | (1<<DDC3) | (1<<DDC2) | (1<<DDC1) | (1<<DDC0);
	LDI  R30,LOW(255)
	OUT  0x14,R30
; 0001 0014     // State: Bit7=0 Bit6=0 Bit5=0 Bit4=0 Bit3=0 Bit2=0 Bit1=0 Bit0=0
; 0001 0015     PORTC=(0<<PORTC7) | (0<<PORTC6) | (0<<PORTC5) | (0<<PORTC4) | (0<<PORTC3) | (0<<PORTC2) | (0<<PORTC1) | (0<<PORTC0);
	LDI  R30,LOW(0)
	OUT  0x15,R30
; 0001 0016 
; 0001 0017     // Port D initialization
; 0001 0018     // Function: Bit7=Out Bit6=Out Bit5=Out Bit4=Out Bit3=In Bit2=In Bit1=In Bit0=In
; 0001 0019     DDRD=(1<<DDD7) | (1<<DDD6) | (1<<DDD5) | (1<<DDD4) | (0<<DDD3) | (0<<DDD2) | (0<<DDD1) | (0<<DDD0);
	LDI  R30,LOW(240)
	OUT  0x11,R30
; 0001 001A     // State: Bit7=0 Bit6=0 Bit5=0 Bit4=0 Bit3=T Bit2=T Bit1=T Bit0=T
; 0001 001B     PORTD=(0<<PORTD7) | (0<<PORTD6) | (0<<PORTD5) | (0<<PORTD4) | (0<<PORTD3) | (0<<PORTD2) | (0<<PORTD1) | (0<<PORTD0);
	LDI  R30,LOW(0)
	OUT  0x12,R30
; 0001 001C }
	RET
; .FEND
;
;void timer_init(){
; 0001 001E void timer_init(){
_timer_init:
; .FSTART _timer_init
; 0001 001F     // Timer/Counter 0 initialization
; 0001 0020     // Clock source: System Clock
; 0001 0021     // Clock value: 125.000 kHz
; 0001 0022     // Mode: Normal top=0xFF
; 0001 0023     // OC0 output: Disconnected
; 0001 0024     // Timer Period: 1 ms
; 0001 0025     TCCR0=(0<<WGM00) | (0<<COM01) | (0<<COM00) | (0<<WGM01) | (0<<CS02) | (1<<CS01) | (1<<CS00);
	LDI  R30,LOW(3)
	OUT  0x33,R30
; 0001 0026     TCNT0=0x83;
	LDI  R30,LOW(131)
	OUT  0x32,R30
; 0001 0027     OCR0=0x00;
	LDI  R30,LOW(0)
	OUT  0x3C,R30
; 0001 0028 
; 0001 0029     // Timer/Counter 1 initialization
; 0001 002A     // Clock source: System Clock
; 0001 002B     // Clock value: 8000.000 kHz
; 0001 002C     // Mode: Normal top=0xFFFF
; 0001 002D     // OC1A output: Toggle on compare match
; 0001 002E     // OC1B output: Toggle on compare match
; 0001 002F     // Noise Canceler: Off
; 0001 0030     // Input Capture on Falling Edge
; 0001 0031     // Timer Period: 5 ms
; 0001 0032     // Output Pulse(s):
; 0001 0033     // OC1A Period: 10 ms Width: 5 ms
; 0001 0034     // OC1B Period: 10 ms Width: 5 ms
; 0001 0035     // Timer1 Overflow Interrupt: On
; 0001 0036     // Input Capture Interrupt: Off
; 0001 0037     // Compare A Match Interrupt: Off
; 0001 0038     // Compare B Match Interrupt: Off
; 0001 0039     TCCR1A=(0<<COM1A1) | (1<<COM1A0) | (0<<COM1B1) | (1<<COM1B0) | (0<<WGM11) | (0<<WGM10);
	LDI  R30,LOW(80)
	OUT  0x2F,R30
; 0001 003A     TCCR1B=(0<<ICNC1) | (0<<ICES1) | (0<<WGM13) | (0<<WGM12) | (0<<CS12) | (0<<CS11) | (1<<CS10);
	LDI  R30,LOW(1)
	OUT  0x2E,R30
; 0001 003B     TCNT1H=0x63;
	LDI  R30,LOW(99)
	OUT  0x2D,R30
; 0001 003C     TCNT1L=0xC0;
	LDI  R30,LOW(192)
	OUT  0x2C,R30
; 0001 003D     ICR1H=0x00;
	LDI  R30,LOW(0)
	OUT  0x27,R30
; 0001 003E     ICR1L=0x00;
	OUT  0x26,R30
; 0001 003F     OCR1AH=0x00;
	OUT  0x2B,R30
; 0001 0040     OCR1AL=0x00;
	OUT  0x2A,R30
; 0001 0041     OCR1BH=0x00;
	OUT  0x29,R30
; 0001 0042     OCR1BL=0x00;
	OUT  0x28,R30
; 0001 0043 
; 0001 0044     // Timer/Counter 2 initialization
; 0001 0045     // Clock source: System Clock
; 0001 0046     // Clock value: Timer2 Stopped
; 0001 0047     // Mode: Normal top=0xFF
; 0001 0048     // OC2 output: Disconnected
; 0001 0049     ASSR=0<<AS2;
	OUT  0x22,R30
; 0001 004A     TCCR2=(0<<PWM2) | (0<<COM21) | (0<<COM20) | (0<<CTC2) | (0<<CS22) | (0<<CS21) | (0<<CS20);
	OUT  0x25,R30
; 0001 004B     TCNT2=0x00;
	OUT  0x24,R30
; 0001 004C     OCR2=0x00;
	OUT  0x23,R30
; 0001 004D 
; 0001 004E     // Timer(s)/Counter(s) Interrupt(s) initialization
; 0001 004F     TIMSK=(0<<OCIE2) | (0<<TOIE2) | (0<<TICIE1) | (0<<OCIE1A) | (0<<OCIE1B) | (1<<TOIE1) | (0<<OCIE0) | (1<<TOIE0);
	LDI  R30,LOW(5)
	OUT  0x39,R30
; 0001 0050 }
	RET
; .FEND
;
;void interrupt_init(){
; 0001 0052 void interrupt_init(){
_interrupt_init:
; .FSTART _interrupt_init
; 0001 0053     // External Interrupt(s) initialization
; 0001 0054     // INT0: On
; 0001 0055     // INT0 Mode: Falling Edge
; 0001 0056     // INT1: On
; 0001 0057     // INT1 Mode: Falling Edge
; 0001 0058     // INT2: On
; 0001 0059     // INT2 Mode: Falling Edge
; 0001 005A     GICR|=(1<<INT1) | (1<<INT0) | (1<<INT2);
	IN   R30,0x3B
	ORI  R30,LOW(0xE0)
	OUT  0x3B,R30
; 0001 005B     MCUCR=(1<<ISC11) | (0<<ISC10) | (1<<ISC01) | (0<<ISC00);
	LDI  R30,LOW(10)
	OUT  0x35,R30
; 0001 005C     MCUCSR=(0<<ISC2);
	LDI  R30,LOW(0)
	OUT  0x34,R30
; 0001 005D     GIFR=(1<<INTF1) | (1<<INTF0) | (1<<INTF2);
	LDI  R30,LOW(224)
	OUT  0x3A,R30
; 0001 005E }
	RET
; .FEND
;
;void lcd_puts_init(){
; 0001 0060 void lcd_puts_init(){
_lcd_puts_init:
; .FSTART _lcd_puts_init
; 0001 0061     sprintf(LCD_line2_parking_template,
; 0001 0062             "CE:%4d**", maxParkingCapacuty);
	CALL SUBOPT_0x0
	__POINTW1FN _0x20000,0
	CALL SUBOPT_0x1
; 0001 0063     sprintf(LCD_line1_template,
; 0001 0064             "%2d:%2d:%2d:%2d", 0,0,0,0);
	CALL SUBOPT_0x2
	__POINTW1FN _0x20000,9
	ST   -Y,R31
	ST   -Y,R30
	CALL SUBOPT_0x3
	CALL SUBOPT_0x3
	CALL SUBOPT_0x3
	CALL SUBOPT_0x3
	LDI  R24,16
	CALL _sprintf
	ADIW R28,20
; 0001 0065     sprintf(LCD_line2_period_template, "%4dMS0", 10);
	CALL SUBOPT_0x4
	__POINTW1FN _0x20000,25
	CALL SUBOPT_0x1
; 0001 0066     lcd_clear();
	CALL _lcd_clear
; 0001 0067     lcd_gotoxy(line1x, line1y);
	CALL SUBOPT_0x5
; 0001 0068     lcd_puts(LCD_line1_template);
; 0001 0069     lcd_gotoxy(line2x, line2y);
	RJMP _0x2080005
; 0001 006A     lcd_puts(LCD_line2_parking_template);
; 0001 006B     lcd_puts(LCD_line2_period_template);
; 0001 006C }
; .FEND
;
;void board_init(){
; 0001 006E void board_init(){
_board_init:
; .FSTART _board_init
; 0001 006F     io_init();
	RCALL _io_init
; 0001 0070     timer_init();
	RCALL _timer_init
; 0001 0071     interrupt_init();
	RCALL _interrupt_init
; 0001 0072 
; 0001 0073     // Alphanumeric LCD initialization
; 0001 0074     // Connections are specified in the
; 0001 0075     // Project|Configure|C Compiler|Libraries|Alphanumeric LCD menu:
; 0001 0076     // RS - PORTC Bit 0
; 0001 0077     // RD - PORTC Bit 1
; 0001 0078     // EN - PORTC Bit 2
; 0001 0079     // D4 - PORTC Bit 4
; 0001 007A     // D5 - PORTC Bit 5
; 0001 007B     // D6 - PORTC Bit 6
; 0001 007C     // D7 - PORTC Bit 7
; 0001 007D     // Characters/line: 16
; 0001 007E     lcd_init(16);
	LDI  R26,LOW(16)
	CALL _lcd_init
; 0001 007F     lcd_puts_init();
	RCALL _lcd_puts_init
; 0001 0080 }
	RET
; .FEND
;#include "test4_lib.h"
	#ifndef __SLEEP_DEFINED__
	#define __SLEEP_DEFINED__
	.EQU __se_bit=0x40
	.EQU __sm_mask=0xB0
	.EQU __sm_powerdown=0x20
	.EQU __sm_powersave=0x30
	.EQU __sm_standby=0xA0
	.EQU __sm_ext_standby=0xB0
	.EQU __sm_adc_noise_red=0x10
	.SET power_ctrl_reg=mcucr
	#endif
;
;// ----------------------------------------------------
;uint8_t houre = 0;
;uint8_t minute = 0;
;uint8_t second = 0;
;uint8_t hundredth_of_a_second = 0;
;uint8_t parking_empty_capacity = maxParkingCapacuty;
;uint8_t period = 255;
;uint16_t in_period;
;uint16_t temp;
;char which_one_is_clicked = stop;
;char timer0_error_handler = 0;
;char* LCD_line1_template = "00:00:00:00";

	.DSEG
_0x40003:
	.BYTE 0xC
;char* LCD_line2_parking_template = "CE:0000**";
_0x40005:
	.BYTE 0xA
;char* LCD_line2_period_template = "0000000";
_0x40007:
	.BYTE 0x8
;
;// ----------------------------------------------------
;// for mapping betwee period range [1 us, 10'000 us]
;// with PORTA that can differ in range [0, 255]
;long map(
; 0002 0016     long x,
; 0002 0017     long in_min,
; 0002 0018     long in_max,
; 0002 0019     long out_min,
; 0002 001A     long out_max)
; 0002 001B {

	.CSEG
_map:
; .FSTART _map
; 0002 001C     return (x - in_min) *
	CALL __PUTPARD2
;	x -> Y+16
;	in_min -> Y+12
;	in_max -> Y+8
;	out_min -> Y+4
;	out_max -> Y+0
; 0002 001D            (out_max - out_min) /
; 0002 001E            (in_max - in_min) +
; 0002 001F            out_min;
	__GETD2S 12
	__GETD1S 16
	CALL __SUBD12
	PUSH R23
	PUSH R22
	PUSH R31
	PUSH R30
	__GETD2S 4
	CALL __GETD1S0
	CALL __SUBD12
	POP  R26
	POP  R27
	POP  R24
	POP  R25
	CALL __MULD12
	PUSH R23
	PUSH R22
	PUSH R31
	PUSH R30
	__GETD2S 12
	__GETD1S 8
	CALL __SUBD12
	POP  R26
	POP  R27
	POP  R24
	POP  R25
	CALL __DIVD21
	__GETD2S 4
	CALL __ADDD12
	RJMP _0x2080003
; 0002 0020 }
; .FEND
;
;// ----------------------------------------------------
;// External Interrupt 0 service routine
;interrupt [EXT_INT0] void ext_int0_isr(void){
; 0002 0024 interrupt [2] void ext_int0_isr(void){
_ext_int0_isr:
; .FSTART _ext_int0_isr
	CALL SUBOPT_0x6
; 0002 0025     subRoutine2();
	RCALL _subRoutine2
; 0002 0026 }
	RJMP _0x40027
; .FEND
;
;// External Interrupt 1 service routine
;interrupt [EXT_INT1] void ext_int1_isr(void){
; 0002 0029 interrupt [3] void ext_int1_isr(void){
_ext_int1_isr:
; .FSTART _ext_int1_isr
	ST   -Y,R26
	ST   -Y,R30
	IN   R30,SREG
	ST   -Y,R30
; 0002 002A     if (which_one_is_clicked == stop &&
; 0002 002B             StopButton == isClicked){
	LDS  R26,_which_one_is_clicked
	CPI  R26,LOW(0x0)
	BRNE _0x4000A
	SBIS 0x16,5
	RJMP _0x4000B
_0x4000A:
	RJMP _0x40009
_0x4000B:
; 0002 002C         // STOP is double clicked
; 0002 002D         houre = reset;
	CLR  R5
; 0002 002E         minute = reset;
	CLR  R4
; 0002 002F         second = reset;
	CLR  R7
; 0002 0030         hundredth_of_a_second = reset;
	CLR  R6
; 0002 0031     }
; 0002 0032     which_one_is_clicked = (
_0x40009:
; 0002 0033         StartButton == isClicked
; 0002 0034         ? start
; 0002 0035         : stop
; 0002 0036         );
	SBIC 0x16,4
	RJMP _0x4000C
	LDI  R30,LOW(1)
	RJMP _0x4000D
_0x4000C:
	LDI  R30,LOW(0)
_0x4000D:
	STS  _which_one_is_clicked,R30
; 0002 0037 }
	LD   R30,Y+
	OUT  SREG,R30
	LD   R30,Y+
	LD   R26,Y+
	RETI
; .FEND
;
;// External Interrupt 2 service routine
;interrupt [EXT_INT2] void ext_int2_isr(void){
; 0002 003A interrupt [19] void ext_int2_isr(void){
_ext_int2_isr:
; .FSTART _ext_int2_isr
	CALL SUBOPT_0x6
; 0002 003B     period = inputPeriodPin;
	IN   R8,25
; 0002 003C     subRoutine3();
	RCALL _subRoutine3
; 0002 003D }
	RJMP _0x40027
; .FEND
;
;// Timer 0 overflow interrupt service routine
;interrupt [TIM0_OVF] void timer0_ovf_isr(void){
; 0002 0040 interrupt [10] void timer0_ovf_isr(void){
_timer0_ovf_isr:
; .FSTART _timer0_ovf_isr
	CALL SUBOPT_0x6
; 0002 0041     // Reinitialize Timer 0 value
; 0002 0042     TCNT0=0x83;
	LDI  R30,LOW(131)
	OUT  0x32,R30
; 0002 0043 
; 0002 0044     // this timer generate 1ms but I need 10ms so:
; 0002 0045     if (timer0_error_handler != 10){
	LDS  R26,_timer0_error_handler
	CPI  R26,LOW(0xA)
	BREQ _0x4000F
; 0002 0046         timer0_error_handler++;
	LDS  R30,_timer0_error_handler
	SUBI R30,-LOW(1)
	STS  _timer0_error_handler,R30
; 0002 0047     }
; 0002 0048     else { // timer0_error_handler == 10 => 10ms delay generated !
	RJMP _0x40010
_0x4000F:
; 0002 0049         timer0_error_handler = 0;
	LDI  R30,LOW(0)
	STS  _timer0_error_handler,R30
; 0002 004A 
; 0002 004B         if (which_one_is_clicked == start){
	LDS  R26,_which_one_is_clicked
	CPI  R26,LOW(0x1)
	BRNE _0x40011
; 0002 004C             subRoutine1();
	RCALL _subRoutine1
; 0002 004D         }
; 0002 004E         sprintf(LCD_line1_template,
_0x40011:
; 0002 004F                 "%2d:%2d:%2d:%2d",
; 0002 0050                 houre,minute,second,hundredth_of_a_second);
	CALL SUBOPT_0x2
	__POINTW1FN _0x40000,30
	ST   -Y,R31
	ST   -Y,R30
	MOV  R30,R5
	CALL SUBOPT_0x7
	MOV  R30,R4
	CALL SUBOPT_0x7
	MOV  R30,R7
	CALL SUBOPT_0x7
	MOV  R30,R6
	CALL SUBOPT_0x7
	LDI  R24,16
	CALL _sprintf
	ADIW R28,20
; 0002 0051         lcd_gotoxy(line1x, line2x);
	CALL SUBOPT_0x5
; 0002 0052         lcd_puts(LCD_line1_template);
; 0002 0053     }
_0x40010:
; 0002 0054 }
	RJMP _0x40027
; .FEND
;
;// Timer1 overflow interrupt service routine
;interrupt [TIM1_OVF] void timer1_ovf_isr(void){
; 0002 0057 interrupt [9] void timer1_ovf_isr(void){
_timer1_ovf_isr:
; .FSTART _timer1_ovf_isr
	CALL SUBOPT_0x6
; 0002 0058     // Reinitialize Timer1 value
; 0002 0059     temp = map(period,0,255,1,10000) * microUnit * OCRconstant;
	CALL SUBOPT_0x8
	CALL SUBOPT_0x9
	CALL __CDF1
	__GETD2N 0x358637BD
	CALL __MULF12
	__GETD2N 0x3F800000
	CALL __MULF12
	MOVW R26,R30
	MOVW R24,R22
	__GETD1N 0x40000000
	CALL __DIVF21
	__GETD2N 0x4AF42400
	CALL __MULF12
	CALL __CFD1U
	MOVW R12,R30
; 0002 005A     TCNT1H= temp >> 8;
	MOV  R30,R13
	ANDI R31,HIGH(0x0)
	OUT  0x2D,R30
; 0002 005B     TCNT1L= temp & 0xff;
	MOV  R30,R12
	OUT  0x2C,R30
; 0002 005C }
_0x40027:
	LD   R30,Y+
	OUT  SREG,R30
	LD   R31,Y+
	LD   R30,Y+
	LD   R27,Y+
	LD   R26,Y+
	LD   R25,Y+
	LD   R24,Y+
	LD   R23,Y+
	LD   R22,Y+
	LD   R15,Y+
	LD   R1,Y+
	LD   R0,Y+
	RETI
; .FEND
;
;// ----------------------------------------------------
;void subRoutine1(){
; 0002 005F void subRoutine1(){
_subRoutine1:
; .FSTART _subRoutine1
; 0002 0060     /* a Stopwatch with accuracy of 0.01 second */
; 0002 0061     if (hundredth_of_a_second == maxOfHundredthOfSecond){
	LDI  R30,LOW(99)
	CP   R30,R6
	BRNE _0x40012
; 0002 0062         hundredth_of_a_second = reset;
	CLR  R6
; 0002 0063 
; 0002 0064         if (second == maxOfSecond){
	LDI  R30,LOW(59)
	CP   R30,R7
	BRNE _0x40013
; 0002 0065             second = reset;
	CLR  R7
; 0002 0066 
; 0002 0067             if (minute == maxOfMinute){
	CP   R30,R4
	BRNE _0x40014
; 0002 0068                 minute = reset;
	CLR  R4
; 0002 0069 
; 0002 006A                 houre = (
; 0002 006B                     houre !=maxOfHoure
; 0002 006C                     ? houre + 1
; 0002 006D                     : reset
; 0002 006E                     ) ;
	LDI  R30,LOW(99)
	CP   R30,R5
	BREQ _0x40015
	MOV  R30,R5
	LDI  R31,0
	ADIW R30,1
	RJMP _0x40016
_0x40015:
	LDI  R30,LOW(0)
_0x40016:
	MOV  R5,R30
; 0002 006F             }
; 0002 0070             else{minute++;}
	RJMP _0x40018
_0x40014:
	INC  R4
_0x40018:
; 0002 0071         }
; 0002 0072         else{second++;}
	RJMP _0x40019
_0x40013:
	INC  R7
_0x40019:
; 0002 0073     }
; 0002 0074     else{hundredth_of_a_second++;}
	RJMP _0x4001A
_0x40012:
	INC  R6
_0x4001A:
; 0002 0075 }
	RET
; .FEND
;
;void subRoutine2(){
; 0002 0077 void subRoutine2(){
_subRoutine2:
; .FSTART _subRoutine2
; 0002 0078     /* a system to show empty parking capacity */
; 0002 0079     if (Car_in_Button == isClicked &&
; 0002 007A             parking_empty_capacity > 0){
	SBIC 0x16,7
	RJMP _0x4001C
	LDI  R30,LOW(0)
	CP   R30,R9
	BRLO _0x4001D
_0x4001C:
	RJMP _0x4001B
_0x4001D:
; 0002 007B         parking_empty_capacity--;
	DEC  R9
; 0002 007C     }
; 0002 007D     else if (Car_out_Button == isClicked &&
	RJMP _0x4001E
_0x4001B:
; 0002 007E             parking_empty_capacity < maxParkingCapacuty){
	SBIC 0x16,3
	RJMP _0x40020
	LDI  R30,LOW(10)
	CP   R9,R30
	BRLO _0x40021
_0x40020:
	RJMP _0x4001F
_0x40021:
; 0002 007F         parking_empty_capacity++;
	INC  R9
; 0002 0080     }
; 0002 0081     if (parking_empty_capacity == full){
_0x4001F:
_0x4001E:
	TST  R9
	BRNE _0x40022
; 0002 0082         sprintf(LCD_line2_parking_template,
; 0002 0083                 "CE:FULL**");
	CALL SUBOPT_0x0
	__POINTW1FN _0x40000,46
	ST   -Y,R31
	ST   -Y,R30
	LDI  R24,0
	CALL _sprintf
	ADIW R28,4
; 0002 0084     }
; 0002 0085     else {
	RJMP _0x40023
_0x40022:
; 0002 0086         sprintf(LCD_line2_parking_template,
; 0002 0087                 "CE:%4d**", parking_empty_capacity);
	CALL SUBOPT_0x0
	__POINTW1FN _0x40000,56
	ST   -Y,R31
	ST   -Y,R30
	MOV  R30,R9
	CALL SUBOPT_0x7
	LDI  R24,4
	CALL _sprintf
	ADIW R28,8
; 0002 0088     }
_0x40023:
; 0002 0089     lcd_gotoxy(line2x, line2y);// go to next line
	LDI  R30,LOW(0)
	CALL SUBOPT_0xA
; 0002 008A     lcd_puts(LCD_line2_parking_template);
	RJMP _0x2080004
; 0002 008B }
; .FEND
;
;void subRoutine3(){
; 0002 008D void subRoutine3(){
_subRoutine3:
; .FSTART _subRoutine3
; 0002 008E     /* generate square wave with period of <PINA> */
; 0002 008F     in_period = map(period,0,255,1,10000);
	CALL SUBOPT_0x8
	CALL SUBOPT_0x9
	MOVW R10,R30
; 0002 0090     if (in_period % 1000 == 0){
	MOVW R26,R10
	LDI  R30,LOW(1000)
	LDI  R31,HIGH(1000)
	CALL __MODW21U
	SBIW R30,0
	BRNE _0x40024
; 0002 0091         sprintf(LCD_line2_period_template, "%4dMS0", in_period/1000);
	CALL SUBOPT_0x4
	__POINTW1FN _0x40000,65
	ST   -Y,R31
	ST   -Y,R30
	MOVW R26,R10
	LDI  R30,LOW(1000)
	LDI  R31,HIGH(1000)
	CALL __DIVW21U
	RJMP _0x40026
; 0002 0092     }
; 0002 0093     else {
_0x40024:
; 0002 0094         sprintf(LCD_line2_period_template, "%4dUS0", in_period);
	CALL SUBOPT_0x4
	__POINTW1FN _0x40000,72
	ST   -Y,R31
	ST   -Y,R30
	MOVW R30,R10
_0x40026:
	CLR  R22
	CLR  R23
	CALL __PUTPARD1
	LDI  R24,4
	CALL _sprintf
	ADIW R28,8
; 0002 0095     }
; 0002 0096     lcd_gotoxy(line2x, line2y);
_0x2080005:
	LDI  R30,LOW(0)
	CALL SUBOPT_0xA
; 0002 0097     lcd_puts(LCD_line2_parking_template);
	CALL _lcd_puts
; 0002 0098     lcd_puts(LCD_line2_period_template);
	LDS  R26,_LCD_line2_period_template
	LDS  R27,_LCD_line2_period_template+1
_0x2080004:
	CALL _lcd_puts
; 0002 0099 }
	RET
; .FEND
	#ifndef __SLEEP_DEFINED__
	#define __SLEEP_DEFINED__
	.EQU __se_bit=0x40
	.EQU __sm_mask=0xB0
	.EQU __sm_powerdown=0x20
	.EQU __sm_powersave=0x30
	.EQU __sm_standby=0xA0
	.EQU __sm_ext_standby=0xB0
	.EQU __sm_adc_noise_red=0x10
	.SET power_ctrl_reg=mcucr
	#endif

	.CSEG
_put_buff_G100:
; .FSTART _put_buff_G100
	ST   -Y,R27
	ST   -Y,R26
	ST   -Y,R17
	ST   -Y,R16
	LDD  R26,Y+2
	LDD  R27,Y+2+1
	ADIW R26,2
	CALL __GETW1P
	SBIW R30,0
	BREQ _0x2000010
	LDD  R26,Y+2
	LDD  R27,Y+2+1
	ADIW R26,4
	CALL __GETW1P
	MOVW R16,R30
	SBIW R30,0
	BREQ _0x2000012
	__CPWRN 16,17,2
	BRLO _0x2000013
	MOVW R30,R16
	SBIW R30,1
	MOVW R16,R30
	__PUTW1SNS 2,4
_0x2000012:
	LDD  R26,Y+2
	LDD  R27,Y+2+1
	ADIW R26,2
	LD   R30,X+
	LD   R31,X+
	ADIW R30,1
	ST   -X,R31
	ST   -X,R30
	SBIW R30,1
	LDD  R26,Y+4
	STD  Z+0,R26
_0x2000013:
	LDD  R26,Y+2
	LDD  R27,Y+2+1
	CALL __GETW1P
	TST  R31
	BRMI _0x2000014
	LD   R30,X+
	LD   R31,X+
	ADIW R30,1
	ST   -X,R31
	ST   -X,R30
_0x2000014:
	RJMP _0x2000015
_0x2000010:
	LDD  R26,Y+2
	LDD  R27,Y+2+1
	LDI  R30,LOW(65535)
	LDI  R31,HIGH(65535)
	ST   X+,R30
	ST   X,R31
_0x2000015:
	LDD  R17,Y+1
	LDD  R16,Y+0
	ADIW R28,5
	RET
; .FEND
__print_G100:
; .FSTART __print_G100
	ST   -Y,R27
	ST   -Y,R26
	SBIW R28,6
	CALL __SAVELOCR6
	LDI  R17,0
	LDD  R26,Y+12
	LDD  R27,Y+12+1
	LDI  R30,LOW(0)
	LDI  R31,HIGH(0)
	ST   X+,R30
	ST   X,R31
_0x2000016:
	LDD  R30,Y+18
	LDD  R31,Y+18+1
	ADIW R30,1
	STD  Y+18,R30
	STD  Y+18+1,R31
	SBIW R30,1
	LPM  R30,Z
	MOV  R18,R30
	CPI  R30,0
	BRNE PC+2
	RJMP _0x2000018
	MOV  R30,R17
	CPI  R30,0
	BRNE _0x200001C
	CPI  R18,37
	BRNE _0x200001D
	LDI  R17,LOW(1)
	RJMP _0x200001E
_0x200001D:
	CALL SUBOPT_0xB
_0x200001E:
	RJMP _0x200001B
_0x200001C:
	CPI  R30,LOW(0x1)
	BRNE _0x200001F
	CPI  R18,37
	BRNE _0x2000020
	CALL SUBOPT_0xB
	RJMP _0x20000CC
_0x2000020:
	LDI  R17,LOW(2)
	LDI  R20,LOW(0)
	LDI  R16,LOW(0)
	CPI  R18,45
	BRNE _0x2000021
	LDI  R16,LOW(1)
	RJMP _0x200001B
_0x2000021:
	CPI  R18,43
	BRNE _0x2000022
	LDI  R20,LOW(43)
	RJMP _0x200001B
_0x2000022:
	CPI  R18,32
	BRNE _0x2000023
	LDI  R20,LOW(32)
	RJMP _0x200001B
_0x2000023:
	RJMP _0x2000024
_0x200001F:
	CPI  R30,LOW(0x2)
	BRNE _0x2000025
_0x2000024:
	LDI  R21,LOW(0)
	LDI  R17,LOW(3)
	CPI  R18,48
	BRNE _0x2000026
	ORI  R16,LOW(128)
	RJMP _0x200001B
_0x2000026:
	RJMP _0x2000027
_0x2000025:
	CPI  R30,LOW(0x3)
	BREQ PC+2
	RJMP _0x200001B
_0x2000027:
	CPI  R18,48
	BRLO _0x200002A
	CPI  R18,58
	BRLO _0x200002B
_0x200002A:
	RJMP _0x2000029
_0x200002B:
	LDI  R26,LOW(10)
	MUL  R21,R26
	MOV  R21,R0
	MOV  R30,R18
	SUBI R30,LOW(48)
	ADD  R21,R30
	RJMP _0x200001B
_0x2000029:
	MOV  R30,R18
	CPI  R30,LOW(0x63)
	BRNE _0x200002F
	CALL SUBOPT_0xC
	LDD  R30,Y+16
	LDD  R31,Y+16+1
	LDD  R26,Z+4
	ST   -Y,R26
	CALL SUBOPT_0xD
	RJMP _0x2000030
_0x200002F:
	CPI  R30,LOW(0x73)
	BRNE _0x2000032
	CALL SUBOPT_0xC
	CALL SUBOPT_0xE
	CALL _strlen
	MOV  R17,R30
	RJMP _0x2000033
_0x2000032:
	CPI  R30,LOW(0x70)
	BRNE _0x2000035
	CALL SUBOPT_0xC
	CALL SUBOPT_0xE
	CALL _strlenf
	MOV  R17,R30
	ORI  R16,LOW(8)
_0x2000033:
	ORI  R16,LOW(2)
	ANDI R16,LOW(127)
	LDI  R19,LOW(0)
	RJMP _0x2000036
_0x2000035:
	CPI  R30,LOW(0x64)
	BREQ _0x2000039
	CPI  R30,LOW(0x69)
	BRNE _0x200003A
_0x2000039:
	ORI  R16,LOW(4)
	RJMP _0x200003B
_0x200003A:
	CPI  R30,LOW(0x75)
	BRNE _0x200003C
_0x200003B:
	LDI  R30,LOW(_tbl10_G100*2)
	LDI  R31,HIGH(_tbl10_G100*2)
	STD  Y+6,R30
	STD  Y+6+1,R31
	LDI  R17,LOW(5)
	RJMP _0x200003D
_0x200003C:
	CPI  R30,LOW(0x58)
	BRNE _0x200003F
	ORI  R16,LOW(8)
	RJMP _0x2000040
_0x200003F:
	CPI  R30,LOW(0x78)
	BREQ PC+2
	RJMP _0x2000071
_0x2000040:
	LDI  R30,LOW(_tbl16_G100*2)
	LDI  R31,HIGH(_tbl16_G100*2)
	STD  Y+6,R30
	STD  Y+6+1,R31
	LDI  R17,LOW(4)
_0x200003D:
	SBRS R16,2
	RJMP _0x2000042
	CALL SUBOPT_0xC
	CALL SUBOPT_0xF
	LDD  R26,Y+11
	TST  R26
	BRPL _0x2000043
	LDD  R30,Y+10
	LDD  R31,Y+10+1
	CALL __ANEGW1
	STD  Y+10,R30
	STD  Y+10+1,R31
	LDI  R20,LOW(45)
_0x2000043:
	CPI  R20,0
	BREQ _0x2000044
	SUBI R17,-LOW(1)
	RJMP _0x2000045
_0x2000044:
	ANDI R16,LOW(251)
_0x2000045:
	RJMP _0x2000046
_0x2000042:
	CALL SUBOPT_0xC
	CALL SUBOPT_0xF
_0x2000046:
_0x2000036:
	SBRC R16,0
	RJMP _0x2000047
_0x2000048:
	CP   R17,R21
	BRSH _0x200004A
	SBRS R16,7
	RJMP _0x200004B
	SBRS R16,2
	RJMP _0x200004C
	ANDI R16,LOW(251)
	MOV  R18,R20
	SUBI R17,LOW(1)
	RJMP _0x200004D
_0x200004C:
	LDI  R18,LOW(48)
_0x200004D:
	RJMP _0x200004E
_0x200004B:
	LDI  R18,LOW(32)
_0x200004E:
	CALL SUBOPT_0xB
	SUBI R21,LOW(1)
	RJMP _0x2000048
_0x200004A:
_0x2000047:
	MOV  R19,R17
	SBRS R16,1
	RJMP _0x200004F
_0x2000050:
	CPI  R19,0
	BREQ _0x2000052
	SBRS R16,3
	RJMP _0x2000053
	LDD  R30,Y+6
	LDD  R31,Y+6+1
	LPM  R18,Z+
	STD  Y+6,R30
	STD  Y+6+1,R31
	RJMP _0x2000054
_0x2000053:
	LDD  R26,Y+6
	LDD  R27,Y+6+1
	LD   R18,X+
	STD  Y+6,R26
	STD  Y+6+1,R27
_0x2000054:
	CALL SUBOPT_0xB
	CPI  R21,0
	BREQ _0x2000055
	SUBI R21,LOW(1)
_0x2000055:
	SUBI R19,LOW(1)
	RJMP _0x2000050
_0x2000052:
	RJMP _0x2000056
_0x200004F:
_0x2000058:
	LDI  R18,LOW(48)
	LDD  R30,Y+6
	LDD  R31,Y+6+1
	CALL __GETW1PF
	STD  Y+8,R30
	STD  Y+8+1,R31
	LDD  R30,Y+6
	LDD  R31,Y+6+1
	ADIW R30,2
	STD  Y+6,R30
	STD  Y+6+1,R31
_0x200005A:
	LDD  R30,Y+8
	LDD  R31,Y+8+1
	LDD  R26,Y+10
	LDD  R27,Y+10+1
	CP   R26,R30
	CPC  R27,R31
	BRLO _0x200005C
	SUBI R18,-LOW(1)
	LDD  R26,Y+8
	LDD  R27,Y+8+1
	LDD  R30,Y+10
	LDD  R31,Y+10+1
	SUB  R30,R26
	SBC  R31,R27
	STD  Y+10,R30
	STD  Y+10+1,R31
	RJMP _0x200005A
_0x200005C:
	CPI  R18,58
	BRLO _0x200005D
	SBRS R16,3
	RJMP _0x200005E
	SUBI R18,-LOW(7)
	RJMP _0x200005F
_0x200005E:
	SUBI R18,-LOW(39)
_0x200005F:
_0x200005D:
	SBRC R16,4
	RJMP _0x2000061
	CPI  R18,49
	BRSH _0x2000063
	LDD  R26,Y+8
	LDD  R27,Y+8+1
	SBIW R26,1
	BRNE _0x2000062
_0x2000063:
	RJMP _0x20000CD
_0x2000062:
	CP   R21,R19
	BRLO _0x2000067
	SBRS R16,0
	RJMP _0x2000068
_0x2000067:
	RJMP _0x2000066
_0x2000068:
	LDI  R18,LOW(32)
	SBRS R16,7
	RJMP _0x2000069
	LDI  R18,LOW(48)
_0x20000CD:
	ORI  R16,LOW(16)
	SBRS R16,2
	RJMP _0x200006A
	ANDI R16,LOW(251)
	ST   -Y,R20
	CALL SUBOPT_0xD
	CPI  R21,0
	BREQ _0x200006B
	SUBI R21,LOW(1)
_0x200006B:
_0x200006A:
_0x2000069:
_0x2000061:
	CALL SUBOPT_0xB
	CPI  R21,0
	BREQ _0x200006C
	SUBI R21,LOW(1)
_0x200006C:
_0x2000066:
	SUBI R19,LOW(1)
	LDD  R26,Y+8
	LDD  R27,Y+8+1
	SBIW R26,2
	BRLO _0x2000059
	RJMP _0x2000058
_0x2000059:
_0x2000056:
	SBRS R16,0
	RJMP _0x200006D
_0x200006E:
	CPI  R21,0
	BREQ _0x2000070
	SUBI R21,LOW(1)
	LDI  R30,LOW(32)
	ST   -Y,R30
	CALL SUBOPT_0xD
	RJMP _0x200006E
_0x2000070:
_0x200006D:
_0x2000071:
_0x2000030:
_0x20000CC:
	LDI  R17,LOW(0)
_0x200001B:
	RJMP _0x2000016
_0x2000018:
	LDD  R26,Y+12
	LDD  R27,Y+12+1
	CALL __GETW1P
	CALL __LOADLOCR6
_0x2080003:
	ADIW R28,20
	RET
; .FEND
_sprintf:
; .FSTART _sprintf
	PUSH R15
	MOV  R15,R24
	SBIW R28,6
	CALL __SAVELOCR4
	CALL SUBOPT_0x10
	SBIW R30,0
	BRNE _0x2000072
	LDI  R30,LOW(65535)
	LDI  R31,HIGH(65535)
	RJMP _0x2080002
_0x2000072:
	MOVW R26,R28
	ADIW R26,6
	CALL __ADDW2R15
	MOVW R16,R26
	CALL SUBOPT_0x10
	STD  Y+6,R30
	STD  Y+6+1,R31
	LDI  R30,LOW(0)
	STD  Y+8,R30
	STD  Y+8+1,R30
	MOVW R26,R28
	ADIW R26,10
	CALL __ADDW2R15
	CALL __GETW1P
	ST   -Y,R31
	ST   -Y,R30
	ST   -Y,R17
	ST   -Y,R16
	LDI  R30,LOW(_put_buff_G100)
	LDI  R31,HIGH(_put_buff_G100)
	ST   -Y,R31
	ST   -Y,R30
	MOVW R26,R28
	ADIW R26,10
	RCALL __print_G100
	MOVW R18,R30
	LDD  R26,Y+6
	LDD  R27,Y+6+1
	LDI  R30,LOW(0)
	ST   X,R30
	MOVW R30,R18
_0x2080002:
	CALL __LOADLOCR4
	ADIW R28,10
	POP  R15
	RET
; .FEND
	#ifndef __SLEEP_DEFINED__
	#define __SLEEP_DEFINED__
	.EQU __se_bit=0x40
	.EQU __sm_mask=0xB0
	.EQU __sm_powerdown=0x20
	.EQU __sm_powersave=0x30
	.EQU __sm_standby=0xA0
	.EQU __sm_ext_standby=0xB0
	.EQU __sm_adc_noise_red=0x10
	.SET power_ctrl_reg=mcucr
	#endif

	.DSEG

	.CSEG
__lcd_write_nibble_G101:
; .FSTART __lcd_write_nibble_G101
	ST   -Y,R26
	IN   R30,0x15
	ANDI R30,LOW(0xF)
	MOV  R26,R30
	LD   R30,Y
	ANDI R30,LOW(0xF0)
	OR   R30,R26
	OUT  0x15,R30
	__DELAY_USB 13
	SBI  0x15,2
	__DELAY_USB 13
	CBI  0x15,2
	__DELAY_USB 13
	RJMP _0x2080001
; .FEND
__lcd_write_data:
; .FSTART __lcd_write_data
	ST   -Y,R26
	LD   R26,Y
	RCALL __lcd_write_nibble_G101
    ld    r30,y
    swap  r30
    st    y,r30
	LD   R26,Y
	RCALL __lcd_write_nibble_G101
	__DELAY_USB 133
	RJMP _0x2080001
; .FEND
_lcd_gotoxy:
; .FSTART _lcd_gotoxy
	ST   -Y,R26
	LD   R30,Y
	LDI  R31,0
	SUBI R30,LOW(-__base_y_G101)
	SBCI R31,HIGH(-__base_y_G101)
	LD   R30,Z
	LDD  R26,Y+1
	ADD  R26,R30
	RCALL __lcd_write_data
	LDD  R30,Y+1
	STS  __lcd_x,R30
	LD   R30,Y
	STS  __lcd_y,R30
	ADIW R28,2
	RET
; .FEND
_lcd_clear:
; .FSTART _lcd_clear
	LDI  R26,LOW(2)
	CALL SUBOPT_0x11
	LDI  R26,LOW(12)
	RCALL __lcd_write_data
	LDI  R26,LOW(1)
	CALL SUBOPT_0x11
	LDI  R30,LOW(0)
	STS  __lcd_y,R30
	STS  __lcd_x,R30
	RET
; .FEND
_lcd_putchar:
; .FSTART _lcd_putchar
	ST   -Y,R26
	LD   R26,Y
	CPI  R26,LOW(0xA)
	BREQ _0x2020005
	LDS  R30,__lcd_maxx
	LDS  R26,__lcd_x
	CP   R26,R30
	BRLO _0x2020004
_0x2020005:
	LDI  R30,LOW(0)
	ST   -Y,R30
	LDS  R26,__lcd_y
	SUBI R26,-LOW(1)
	STS  __lcd_y,R26
	RCALL _lcd_gotoxy
	LD   R26,Y
	CPI  R26,LOW(0xA)
	BRNE _0x2020007
	RJMP _0x2080001
_0x2020007:
_0x2020004:
	LDS  R30,__lcd_x
	SUBI R30,-LOW(1)
	STS  __lcd_x,R30
	SBI  0x15,0
	LD   R26,Y
	RCALL __lcd_write_data
	CBI  0x15,0
	RJMP _0x2080001
; .FEND
_lcd_puts:
; .FSTART _lcd_puts
	ST   -Y,R27
	ST   -Y,R26
	ST   -Y,R17
_0x2020008:
	LDD  R26,Y+1
	LDD  R27,Y+1+1
	LD   R30,X+
	STD  Y+1,R26
	STD  Y+1+1,R27
	MOV  R17,R30
	CPI  R30,0
	BREQ _0x202000A
	MOV  R26,R17
	RCALL _lcd_putchar
	RJMP _0x2020008
_0x202000A:
	LDD  R17,Y+0
	ADIW R28,3
	RET
; .FEND
_lcd_init:
; .FSTART _lcd_init
	ST   -Y,R26
	IN   R30,0x14
	ORI  R30,LOW(0xF0)
	OUT  0x14,R30
	SBI  0x14,2
	SBI  0x14,0
	SBI  0x14,1
	CBI  0x15,2
	CBI  0x15,0
	CBI  0x15,1
	LD   R30,Y
	STS  __lcd_maxx,R30
	SUBI R30,-LOW(128)
	__PUTB1MN __base_y_G101,2
	LD   R30,Y
	SUBI R30,-LOW(192)
	__PUTB1MN __base_y_G101,3
	LDI  R26,LOW(20)
	LDI  R27,0
	CALL _delay_ms
	CALL SUBOPT_0x12
	CALL SUBOPT_0x12
	CALL SUBOPT_0x12
	LDI  R26,LOW(32)
	RCALL __lcd_write_nibble_G101
	__DELAY_USW 200
	LDI  R26,LOW(40)
	RCALL __lcd_write_data
	LDI  R26,LOW(4)
	RCALL __lcd_write_data
	LDI  R26,LOW(133)
	RCALL __lcd_write_data
	LDI  R26,LOW(6)
	RCALL __lcd_write_data
	RCALL _lcd_clear
_0x2080001:
	ADIW R28,1
	RET
; .FEND

	.CSEG

	.CSEG
_strlen:
; .FSTART _strlen
	ST   -Y,R27
	ST   -Y,R26
    ld   r26,y+
    ld   r27,y+
    clr  r30
    clr  r31
strlen0:
    ld   r22,x+
    tst  r22
    breq strlen1
    adiw r30,1
    rjmp strlen0
strlen1:
    ret
; .FEND
_strlenf:
; .FSTART _strlenf
	ST   -Y,R27
	ST   -Y,R26
    clr  r26
    clr  r27
    ld   r30,y+
    ld   r31,y+
strlenf0:
	lpm  r0,z+
    tst  r0
    breq strlenf1
    adiw r26,1
    rjmp strlenf0
strlenf1:
    movw r30,r26
    ret
; .FEND

	.DSEG
_LCD_line1_template:
	.BYTE 0x2
_LCD_line2_parking_template:
	.BYTE 0x2
_LCD_line2_period_template:
	.BYTE 0x2
_which_one_is_clicked:
	.BYTE 0x1
_timer0_error_handler:
	.BYTE 0x1
__base_y_G101:
	.BYTE 0x4
__lcd_x:
	.BYTE 0x1
__lcd_y:
	.BYTE 0x1
__lcd_maxx:
	.BYTE 0x1

	.CSEG
;OPTIMIZER ADDED SUBROUTINE, CALLED 3 TIMES, CODE SIZE REDUCTION:5 WORDS
SUBOPT_0x0:
	LDS  R30,_LCD_line2_parking_template
	LDS  R31,_LCD_line2_parking_template+1
	ST   -Y,R31
	ST   -Y,R30
	RET

;OPTIMIZER ADDED SUBROUTINE, CALLED 2 TIMES, CODE SIZE REDUCTION:7 WORDS
SUBOPT_0x1:
	ST   -Y,R31
	ST   -Y,R30
	__GETD1N 0xA
	CALL __PUTPARD1
	LDI  R24,4
	CALL _sprintf
	ADIW R28,8
	RET

;OPTIMIZER ADDED SUBROUTINE, CALLED 2 TIMES, CODE SIZE REDUCTION:1 WORDS
SUBOPT_0x2:
	LDS  R30,_LCD_line1_template
	LDS  R31,_LCD_line1_template+1
	ST   -Y,R31
	ST   -Y,R30
	RET

;OPTIMIZER ADDED SUBROUTINE, CALLED 6 TIMES, CODE SIZE REDUCTION:17 WORDS
SUBOPT_0x3:
	__GETD1N 0x0
	CALL __PUTPARD1
	RET

;OPTIMIZER ADDED SUBROUTINE, CALLED 3 TIMES, CODE SIZE REDUCTION:5 WORDS
SUBOPT_0x4:
	LDS  R30,_LCD_line2_period_template
	LDS  R31,_LCD_line2_period_template+1
	ST   -Y,R31
	ST   -Y,R30
	RET

;OPTIMIZER ADDED SUBROUTINE, CALLED 2 TIMES, CODE SIZE REDUCTION:6 WORDS
SUBOPT_0x5:
	LDI  R30,LOW(0)
	ST   -Y,R30
	LDI  R26,LOW(0)
	CALL _lcd_gotoxy
	LDS  R26,_LCD_line1_template
	LDS  R27,_LCD_line1_template+1
	JMP  _lcd_puts

;OPTIMIZER ADDED SUBROUTINE, CALLED 4 TIMES, CODE SIZE REDUCTION:30 WORDS
SUBOPT_0x6:
	ST   -Y,R0
	ST   -Y,R1
	ST   -Y,R15
	ST   -Y,R22
	ST   -Y,R23
	ST   -Y,R24
	ST   -Y,R25
	ST   -Y,R26
	ST   -Y,R27
	ST   -Y,R30
	ST   -Y,R31
	IN   R30,SREG
	ST   -Y,R30
	RET

;OPTIMIZER ADDED SUBROUTINE, CALLED 5 TIMES, CODE SIZE REDUCTION:9 WORDS
SUBOPT_0x7:
	CLR  R31
	CLR  R22
	CLR  R23
	CALL __PUTPARD1
	RET

;OPTIMIZER ADDED SUBROUTINE, CALLED 2 TIMES, CODE SIZE REDUCTION:3 WORDS
SUBOPT_0x8:
	MOV  R30,R8
	LDI  R31,0
	CALL __CWD1
	CALL __PUTPARD1
	RJMP SUBOPT_0x3

;OPTIMIZER ADDED SUBROUTINE, CALLED 2 TIMES, CODE SIZE REDUCTION:13 WORDS
SUBOPT_0x9:
	__GETD1N 0xFF
	CALL __PUTPARD1
	__GETD1N 0x1
	CALL __PUTPARD1
	__GETD2N 0x2710
	JMP  _map

;OPTIMIZER ADDED SUBROUTINE, CALLED 2 TIMES, CODE SIZE REDUCTION:3 WORDS
SUBOPT_0xA:
	ST   -Y,R30
	LDI  R26,LOW(1)
	CALL _lcd_gotoxy
	LDS  R26,_LCD_line2_parking_template
	LDS  R27,_LCD_line2_parking_template+1
	RET

;OPTIMIZER ADDED SUBROUTINE, CALLED 5 TIMES, CODE SIZE REDUCTION:13 WORDS
SUBOPT_0xB:
	ST   -Y,R18
	LDD  R26,Y+13
	LDD  R27,Y+13+1
	LDD  R30,Y+15
	LDD  R31,Y+15+1
	ICALL
	RET

;OPTIMIZER ADDED SUBROUTINE, CALLED 5 TIMES, CODE SIZE REDUCTION:9 WORDS
SUBOPT_0xC:
	LDD  R30,Y+16
	LDD  R31,Y+16+1
	SBIW R30,4
	STD  Y+16,R30
	STD  Y+16+1,R31
	RET

;OPTIMIZER ADDED SUBROUTINE, CALLED 3 TIMES, CODE SIZE REDUCTION:3 WORDS
SUBOPT_0xD:
	LDD  R26,Y+13
	LDD  R27,Y+13+1
	LDD  R30,Y+15
	LDD  R31,Y+15+1
	ICALL
	RET

;OPTIMIZER ADDED SUBROUTINE, CALLED 2 TIMES, CODE SIZE REDUCTION:4 WORDS
SUBOPT_0xE:
	LDD  R26,Y+16
	LDD  R27,Y+16+1
	ADIW R26,4
	CALL __GETW1P
	STD  Y+6,R30
	STD  Y+6+1,R31
	LDD  R26,Y+6
	LDD  R27,Y+6+1
	RET

;OPTIMIZER ADDED SUBROUTINE, CALLED 2 TIMES, CODE SIZE REDUCTION:2 WORDS
SUBOPT_0xF:
	LDD  R26,Y+16
	LDD  R27,Y+16+1
	ADIW R26,4
	CALL __GETW1P
	STD  Y+10,R30
	STD  Y+10+1,R31
	RET

;OPTIMIZER ADDED SUBROUTINE, CALLED 2 TIMES, CODE SIZE REDUCTION:1 WORDS
SUBOPT_0x10:
	MOVW R26,R28
	ADIW R26,12
	CALL __ADDW2R15
	CALL __GETW1P
	RET

;OPTIMIZER ADDED SUBROUTINE, CALLED 2 TIMES, CODE SIZE REDUCTION:1 WORDS
SUBOPT_0x11:
	CALL __lcd_write_data
	LDI  R26,LOW(3)
	LDI  R27,0
	JMP  _delay_ms

;OPTIMIZER ADDED SUBROUTINE, CALLED 3 TIMES, CODE SIZE REDUCTION:7 WORDS
SUBOPT_0x12:
	LDI  R26,LOW(48)
	CALL __lcd_write_nibble_G101
	__DELAY_USW 200
	RET


	.CSEG
_delay_ms:
	adiw r26,0
	breq __delay_ms1
__delay_ms0:
	__DELAY_USW 0x7D0
	wdr
	sbiw r26,1
	brne __delay_ms0
__delay_ms1:
	ret

__ROUND_REPACK:
	TST  R21
	BRPL __REPACK
	CPI  R21,0x80
	BRNE __ROUND_REPACK0
	SBRS R30,0
	RJMP __REPACK
__ROUND_REPACK0:
	ADIW R30,1
	ADC  R22,R25
	ADC  R23,R25
	BRVS __REPACK1

__REPACK:
	LDI  R21,0x80
	EOR  R21,R23
	BRNE __REPACK0
	PUSH R21
	RJMP __ZERORES
__REPACK0:
	CPI  R21,0xFF
	BREQ __REPACK1
	LSL  R22
	LSL  R0
	ROR  R21
	ROR  R22
	MOV  R23,R21
	RET
__REPACK1:
	PUSH R21
	TST  R0
	BRMI __REPACK2
	RJMP __MAXRES
__REPACK2:
	RJMP __MINRES

__UNPACK:
	LDI  R21,0x80
	MOV  R1,R25
	AND  R1,R21
	LSL  R24
	ROL  R25
	EOR  R25,R21
	LSL  R21
	ROR  R24

__UNPACK1:
	LDI  R21,0x80
	MOV  R0,R23
	AND  R0,R21
	LSL  R22
	ROL  R23
	EOR  R23,R21
	LSL  R21
	ROR  R22
	RET

__CFD1U:
	SET
	RJMP __CFD1U0
__CFD1:
	CLT
__CFD1U0:
	PUSH R21
	RCALL __UNPACK1
	CPI  R23,0x80
	BRLO __CFD10
	CPI  R23,0xFF
	BRCC __CFD10
	RJMP __ZERORES
__CFD10:
	LDI  R21,22
	SUB  R21,R23
	BRPL __CFD11
	NEG  R21
	CPI  R21,8
	BRTC __CFD19
	CPI  R21,9
__CFD19:
	BRLO __CFD17
	SER  R30
	SER  R31
	SER  R22
	LDI  R23,0x7F
	BLD  R23,7
	RJMP __CFD15
__CFD17:
	CLR  R23
	TST  R21
	BREQ __CFD15
__CFD18:
	LSL  R30
	ROL  R31
	ROL  R22
	ROL  R23
	DEC  R21
	BRNE __CFD18
	RJMP __CFD15
__CFD11:
	CLR  R23
__CFD12:
	CPI  R21,8
	BRLO __CFD13
	MOV  R30,R31
	MOV  R31,R22
	MOV  R22,R23
	SUBI R21,8
	RJMP __CFD12
__CFD13:
	TST  R21
	BREQ __CFD15
__CFD14:
	LSR  R23
	ROR  R22
	ROR  R31
	ROR  R30
	DEC  R21
	BRNE __CFD14
__CFD15:
	TST  R0
	BRPL __CFD16
	RCALL __ANEGD1
__CFD16:
	POP  R21
	RET

__CDF1U:
	SET
	RJMP __CDF1U0
__CDF1:
	CLT
__CDF1U0:
	SBIW R30,0
	SBCI R22,0
	SBCI R23,0
	BREQ __CDF10
	CLR  R0
	BRTS __CDF11
	TST  R23
	BRPL __CDF11
	COM  R0
	RCALL __ANEGD1
__CDF11:
	MOV  R1,R23
	LDI  R23,30
	TST  R1
__CDF12:
	BRMI __CDF13
	DEC  R23
	LSL  R30
	ROL  R31
	ROL  R22
	ROL  R1
	RJMP __CDF12
__CDF13:
	MOV  R30,R31
	MOV  R31,R22
	MOV  R22,R1
	PUSH R21
	RCALL __REPACK
	POP  R21
__CDF10:
	RET

__ZERORES:
	CLR  R30
	CLR  R31
	CLR  R22
	CLR  R23
	POP  R21
	RET

__MINRES:
	SER  R30
	SER  R31
	LDI  R22,0x7F
	SER  R23
	POP  R21
	RET

__MAXRES:
	SER  R30
	SER  R31
	LDI  R22,0x7F
	LDI  R23,0x7F
	POP  R21
	RET

__MULF12:
	PUSH R21
	RCALL __UNPACK
	CPI  R23,0x80
	BREQ __ZERORES
	CPI  R25,0x80
	BREQ __ZERORES
	EOR  R0,R1
	SEC
	ADC  R23,R25
	BRVC __MULF124
	BRLT __ZERORES
__MULF125:
	TST  R0
	BRMI __MINRES
	RJMP __MAXRES
__MULF124:
	PUSH R0
	PUSH R17
	PUSH R18
	PUSH R19
	PUSH R20
	CLR  R17
	CLR  R18
	CLR  R25
	MUL  R22,R24
	MOVW R20,R0
	MUL  R24,R31
	MOV  R19,R0
	ADD  R20,R1
	ADC  R21,R25
	MUL  R22,R27
	ADD  R19,R0
	ADC  R20,R1
	ADC  R21,R25
	MUL  R24,R30
	RCALL __MULF126
	MUL  R27,R31
	RCALL __MULF126
	MUL  R22,R26
	RCALL __MULF126
	MUL  R27,R30
	RCALL __MULF127
	MUL  R26,R31
	RCALL __MULF127
	MUL  R26,R30
	ADD  R17,R1
	ADC  R18,R25
	ADC  R19,R25
	ADC  R20,R25
	ADC  R21,R25
	MOV  R30,R19
	MOV  R31,R20
	MOV  R22,R21
	MOV  R21,R18
	POP  R20
	POP  R19
	POP  R18
	POP  R17
	POP  R0
	TST  R22
	BRMI __MULF122
	LSL  R21
	ROL  R30
	ROL  R31
	ROL  R22
	RJMP __MULF123
__MULF122:
	INC  R23
	BRVS __MULF125
__MULF123:
	RCALL __ROUND_REPACK
	POP  R21
	RET

__MULF127:
	ADD  R17,R0
	ADC  R18,R1
	ADC  R19,R25
	RJMP __MULF128
__MULF126:
	ADD  R18,R0
	ADC  R19,R1
__MULF128:
	ADC  R20,R25
	ADC  R21,R25
	RET

__DIVF21:
	PUSH R21
	RCALL __UNPACK
	CPI  R23,0x80
	BRNE __DIVF210
	TST  R1
__DIVF211:
	BRPL __DIVF219
	RJMP __MINRES
__DIVF219:
	RJMP __MAXRES
__DIVF210:
	CPI  R25,0x80
	BRNE __DIVF218
__DIVF217:
	RJMP __ZERORES
__DIVF218:
	EOR  R0,R1
	SEC
	SBC  R25,R23
	BRVC __DIVF216
	BRLT __DIVF217
	TST  R0
	RJMP __DIVF211
__DIVF216:
	MOV  R23,R25
	PUSH R17
	PUSH R18
	PUSH R19
	PUSH R20
	CLR  R1
	CLR  R17
	CLR  R18
	CLR  R19
	CLR  R20
	CLR  R21
	LDI  R25,32
__DIVF212:
	CP   R26,R30
	CPC  R27,R31
	CPC  R24,R22
	CPC  R20,R17
	BRLO __DIVF213
	SUB  R26,R30
	SBC  R27,R31
	SBC  R24,R22
	SBC  R20,R17
	SEC
	RJMP __DIVF214
__DIVF213:
	CLC
__DIVF214:
	ROL  R21
	ROL  R18
	ROL  R19
	ROL  R1
	ROL  R26
	ROL  R27
	ROL  R24
	ROL  R20
	DEC  R25
	BRNE __DIVF212
	MOVW R30,R18
	MOV  R22,R1
	POP  R20
	POP  R19
	POP  R18
	POP  R17
	TST  R22
	BRMI __DIVF215
	LSL  R21
	ROL  R30
	ROL  R31
	ROL  R22
	DEC  R23
	BRVS __DIVF217
__DIVF215:
	RCALL __ROUND_REPACK
	POP  R21
	RET

__ADDW2R15:
	CLR  R0
	ADD  R26,R15
	ADC  R27,R0
	RET

__ADDD12:
	ADD  R30,R26
	ADC  R31,R27
	ADC  R22,R24
	ADC  R23,R25
	RET

__SUBD12:
	SUB  R30,R26
	SBC  R31,R27
	SBC  R22,R24
	SBC  R23,R25
	RET

__ANEGW1:
	NEG  R31
	NEG  R30
	SBCI R31,0
	RET

__ANEGD1:
	COM  R31
	COM  R22
	COM  R23
	NEG  R30
	SBCI R31,-1
	SBCI R22,-1
	SBCI R23,-1
	RET

__CWD1:
	MOV  R22,R31
	ADD  R22,R22
	SBC  R22,R22
	MOV  R23,R22
	RET

__MULD12U:
	MUL  R23,R26
	MOV  R23,R0
	MUL  R22,R27
	ADD  R23,R0
	MUL  R31,R24
	ADD  R23,R0
	MUL  R30,R25
	ADD  R23,R0
	MUL  R22,R26
	MOV  R22,R0
	ADD  R23,R1
	MUL  R31,R27
	ADD  R22,R0
	ADC  R23,R1
	MUL  R30,R24
	ADD  R22,R0
	ADC  R23,R1
	CLR  R24
	MUL  R31,R26
	MOV  R31,R0
	ADD  R22,R1
	ADC  R23,R24
	MUL  R30,R27
	ADD  R31,R0
	ADC  R22,R1
	ADC  R23,R24
	MUL  R30,R26
	MOV  R30,R0
	ADD  R31,R1
	ADC  R22,R24
	ADC  R23,R24
	RET

__MULD12:
	RCALL __CHKSIGND
	RCALL __MULD12U
	BRTC __MULD121
	RCALL __ANEGD1
__MULD121:
	RET

__DIVW21U:
	CLR  R0
	CLR  R1
	LDI  R25,16
__DIVW21U1:
	LSL  R26
	ROL  R27
	ROL  R0
	ROL  R1
	SUB  R0,R30
	SBC  R1,R31
	BRCC __DIVW21U2
	ADD  R0,R30
	ADC  R1,R31
	RJMP __DIVW21U3
__DIVW21U2:
	SBR  R26,1
__DIVW21U3:
	DEC  R25
	BRNE __DIVW21U1
	MOVW R30,R26
	MOVW R26,R0
	RET

__DIVD21U:
	PUSH R19
	PUSH R20
	PUSH R21
	CLR  R0
	CLR  R1
	CLR  R20
	CLR  R21
	LDI  R19,32
__DIVD21U1:
	LSL  R26
	ROL  R27
	ROL  R24
	ROL  R25
	ROL  R0
	ROL  R1
	ROL  R20
	ROL  R21
	SUB  R0,R30
	SBC  R1,R31
	SBC  R20,R22
	SBC  R21,R23
	BRCC __DIVD21U2
	ADD  R0,R30
	ADC  R1,R31
	ADC  R20,R22
	ADC  R21,R23
	RJMP __DIVD21U3
__DIVD21U2:
	SBR  R26,1
__DIVD21U3:
	DEC  R19
	BRNE __DIVD21U1
	MOVW R30,R26
	MOVW R22,R24
	MOVW R26,R0
	MOVW R24,R20
	POP  R21
	POP  R20
	POP  R19
	RET

__DIVD21:
	RCALL __CHKSIGND
	RCALL __DIVD21U
	BRTC __DIVD211
	RCALL __ANEGD1
__DIVD211:
	RET

__MODW21U:
	RCALL __DIVW21U
	MOVW R30,R26
	RET

__CHKSIGND:
	CLT
	SBRS R23,7
	RJMP __CHKSD1
	RCALL __ANEGD1
	SET
__CHKSD1:
	SBRS R25,7
	RJMP __CHKSD2
	CLR  R0
	COM  R26
	COM  R27
	COM  R24
	COM  R25
	ADIW R26,1
	ADC  R24,R0
	ADC  R25,R0
	BLD  R0,0
	INC  R0
	BST  R0,0
__CHKSD2:
	RET

__GETW1P:
	LD   R30,X+
	LD   R31,X
	SBIW R26,1
	RET

__GETW1PF:
	LPM  R0,Z+
	LPM  R31,Z
	MOV  R30,R0
	RET

__GETD1S0:
	LD   R30,Y
	LDD  R31,Y+1
	LDD  R22,Y+2
	LDD  R23,Y+3
	RET

__PUTPARD1:
	ST   -Y,R23
	ST   -Y,R22
	ST   -Y,R31
	ST   -Y,R30
	RET

__PUTPARD2:
	ST   -Y,R25
	ST   -Y,R24
	ST   -Y,R27
	ST   -Y,R26
	RET

__SAVELOCR6:
	ST   -Y,R21
__SAVELOCR5:
	ST   -Y,R20
__SAVELOCR4:
	ST   -Y,R19
__SAVELOCR3:
	ST   -Y,R18
__SAVELOCR2:
	ST   -Y,R17
	ST   -Y,R16
	RET

__LOADLOCR6:
	LDD  R21,Y+5
__LOADLOCR5:
	LDD  R20,Y+4
__LOADLOCR4:
	LDD  R19,Y+3
__LOADLOCR3:
	LDD  R18,Y+2
__LOADLOCR2:
	LDD  R17,Y+1
	LD   R16,Y
	RET

;END OF CODE MARKER
__END_OF_CODE:
